---
triple:          'arm64-apple-darwin'
binary-path:     main
relocations:
  - { offsetInCU: 0x113BF, offset: 0x113BF, size: 0x8, addend: 0x0, symName: __Z7isspacei, symObjAddr: 0x98, symBinAddr: 0x100003C34, symSize: 0x20 }
  - { offsetInCU: 0x11C49, offset: 0x11C49, size: 0x8, addend: 0x0, symName: __ZStL8__ioinit, symObjAddr: 0xDA280, symBinAddr: 0x100018000, symSize: 0x0 }
  - { offsetInCU: 0x12AA3, offset: 0x12AA3, size: 0x8, addend: 0x0, symName: __ZNSt10_Head_baseILm0EONSt7__cxx1112basic_stringIcSt11char_traitsIcESaIcEEELb0EE7_M_headERS7_, symObjAddr: 0x86AC, symBinAddr: 0x10000C248, symSize: 0x18 }
  - { offsetInCU: 0x12ACC, offset: 0x12ACC, size: 0x8, addend: 0x0, symName: __ZNSt10_Head_baseILm0ERKNSt7__cxx1112basic_stringIcSt11char_traitsIcESaIcEEELb0EE7_M_headERS8_, symObjAddr: 0x8694, symBinAddr: 0x10000C230, symSize: 0x18 }
  - { offsetInCU: 0x12AF5, offset: 0x12AF5, size: 0x8, addend: 0x0, symName: __ZNSt11__copy_moveILb0ELb0ESt26random_access_iterator_tagE12__assign_oneIPNSt7__cxx1112basic_stringIcSt11char_traitsIcESaIcEEES9_EEvPT_PT0_, symObjAddr: 0x866C, symBinAddr: 0x10000C208, symSize: 0x28 }
  - { offsetInCU: 0x12B40, offset: 0x12B40, size: 0x8, addend: 0x0, symName: __ZNSt11_Tuple_implILm0EJONSt7__cxx1112basic_stringIcSt11char_traitsIcESaIcEEEEE7_M_headERS7_, symObjAddr: 0x8650, symBinAddr: 0x10000C1EC, symSize: 0x1C }
  - { offsetInCU: 0x12B69, offset: 0x12B69, size: 0x8, addend: 0x0, symName: __ZNSt11_Tuple_implILm0EJRKNSt7__cxx1112basic_stringIcSt11char_traitsIcESaIcEEEEE7_M_headERS8_, symObjAddr: 0x8634, symBinAddr: 0x10000C1D0, symSize: 0x1C }
  - { offsetInCU: 0x12B92, offset: 0x12B92, size: 0x8, addend: 0x0, symName: __ZNSt20__copy_move_backwardILb0ELb1ESt26random_access_iterator_tagE13__copy_move_bIPNSt7__cxx1112basic_stringIcSt11char_traitsIcESaIcEEES9_EEPT0_PT_SD_SB_, symObjAddr: 0x8588, symBinAddr: 0x10000C124, symSize: 0xAC }
  - { offsetInCU: 0x12BFE, offset: 0x12BFE, size: 0x8, addend: 0x0, symName: __ZNSt11__copy_moveILb0ELb1ESt26random_access_iterator_tagE8__copy_mIPNSt7__cxx1112basic_stringIcSt11char_traitsIcESaIcEEES9_EEPT0_PT_SD_SB_, symObjAddr: 0x84F8, symBinAddr: 0x10000C094, symSize: 0x90 }
  - { offsetInCU: 0x12C6A, offset: 0x12C6A, size: 0x8, addend: 0x0, symName: __ZSt12__get_helperILm0EONSt7__cxx1112basic_stringIcSt11char_traitsIcESaIcEEEJEERT0_RSt11_Tuple_implIXT_EJS7_DpT1_EE, symObjAddr: 0x84DC, symBinAddr: 0x10000C078, symSize: 0x1C }
  - { offsetInCU: 0x12CAB, offset: 0x12CAB, size: 0x8, addend: 0x0, symName: __ZSt12__get_helperILm0ERKNSt7__cxx1112basic_stringIcSt11char_traitsIcESaIcEEEJEERT0_RSt11_Tuple_implIXT_EJS8_DpT1_EE, symObjAddr: 0x84C0, symBinAddr: 0x10000C05C, symSize: 0x1C }
  - { offsetInCU: 0x12CF5, offset: 0x12CF5, size: 0x8, addend: 0x0, symName: __ZNK9__gnu_cxx16__aligned_bufferISt4pairIKNSt7__cxx1112basic_stringIcSt11char_traitsIcESaIcEEESt13unordered_mapIS7_S7_St4hashIS7_ESt8equal_toIS7_ESaIS1_IS8_S7_EEEEE7_M_addrEv, symObjAddr: 0x84AC, symBinAddr: 0x10000C048, symSize: 0x14 }
  - { offsetInCU: 0x12D1A, offset: 0x12D1A, size: 0x8, addend: 0x0, symName: __ZSt23__copy_move_backward_a2ILb0EPPNSt7__cxx1112basic_stringIcSt11char_traitsIcESaIcEEES7_ET1_T0_S9_S8_, symObjAddr: 0x8480, symBinAddr: 0x10000C01C, symSize: 0x2C }
  - { offsetInCU: 0x12D7F, offset: 0x12D7F, size: 0x8, addend: 0x0, symName: __ZSt14__copy_move_a2ILb0EPPNSt7__cxx1112basic_stringIcSt11char_traitsIcESaIcEEES7_ET1_T0_S9_S8_, symObjAddr: 0x8454, symBinAddr: 0x10000BFF0, symSize: 0x2C }
  - { offsetInCU: 0x12DEA, offset: 0x12DEA, size: 0x8, addend: 0x0, symName: __ZSt7forwardIONSt7__cxx1112basic_stringIcSt11char_traitsIcESaIcEEEEOT_RNSt16remove_referenceIS7_E4typeE, symObjAddr: 0x8440, symBinAddr: 0x10000BFDC, symSize: 0x14 }
  - { offsetInCU: 0x12E1C, offset: 0x12E1C, size: 0x8, addend: 0x0, symName: __ZSt3getILm0EJONSt7__cxx1112basic_stringIcSt11char_traitsIcESaIcEEEEERNSt13tuple_elementIXT_ESt5tupleIJDpT0_EEE4typeERSB_, symObjAddr: 0x8424, symBinAddr: 0x10000BFC0, symSize: 0x1C }
  - { offsetInCU: 0x12E5A, offset: 0x12E5A, size: 0x8, addend: 0x0, symName: __ZSt3getILm0EJRKNSt7__cxx1112basic_stringIcSt11char_traitsIcESaIcEEEEERNSt13tuple_elementIXT_ESt5tupleIJDpT0_EEE4typeERSC_, symObjAddr: 0x8408, symBinAddr: 0x10000BFA4, symSize: 0x1C }
  - { offsetInCU: 0x12E9C, offset: 0x12E9C, size: 0x8, addend: 0x0, symName: __ZNK9__gnu_cxx16__aligned_bufferISt4pairIKNSt7__cxx1112basic_stringIcSt11char_traitsIcESaIcEEESt13unordered_mapIS7_S7_St4hashIS7_ESt8equal_toIS7_ESaIS1_IS8_S7_EEEEE6_M_ptrEv, symObjAddr: 0x83EC, symBinAddr: 0x10000BF88, symSize: 0x1C }
  - { offsetInCU: 0x12FCC, offset: 0x12FCC, size: 0x8, addend: 0x0, symName: __ZNSt4pairIKNSt7__cxx1112basic_stringIcSt11char_traitsIcESaIcEEES5_EC1IJRS6_EJLm0EEJEJEEERSt5tupleIJDpT_EERSA_IJDpT1_EESt12_Index_tupleIJXspT0_EEESJ_IJXspT2_EEE, symObjAddr: 0x8394, symBinAddr: 0x10000BF30, symSize: 0x58 }
  - { offsetInCU: 0x12F9E, offset: 0x12F9E, size: 0x8, addend: 0x0, symName: __ZSt23__copy_move_backward_a1ILb0EPPNSt7__cxx1112basic_stringIcSt11char_traitsIcESaIcEEES7_ET1_T0_S9_S8_, symObjAddr: 0x8368, symBinAddr: 0x10000BF04, symSize: 0x2C }
  - { offsetInCU: 0x13003, offset: 0x13003, size: 0x8, addend: 0x0, symName: __ZSt12__niter_wrapIPPNSt7__cxx1112basic_stringIcSt11char_traitsIcESaIcEEEET_RKS8_S8_, symObjAddr: 0x8350, symBinAddr: 0x10000BEEC, symSize: 0x18 }
  - { offsetInCU: 0x1303E, offset: 0x1303E, size: 0x8, addend: 0x0, symName: __ZSt14__copy_move_a1ILb0EPPNSt7__cxx1112basic_stringIcSt11char_traitsIcESaIcEEES7_ET1_T0_S9_S8_, symObjAddr: 0x8324, symBinAddr: 0x10000BEC0, symSize: 0x2C }
  - { offsetInCU: 0x130A3, offset: 0x130A3, size: 0x8, addend: 0x0, symName: __ZSt12__niter_baseIPPNSt7__cxx1112basic_stringIcSt11char_traitsIcESaIcEEEET_S8_, symObjAddr: 0x8310, symBinAddr: 0x10000BEAC, symSize: 0x14 }
  - { offsetInCU: 0x131DF, offset: 0x131DF, size: 0x8, addend: 0x0, symName: __ZNSt4pairIKNSt7__cxx1112basic_stringIcSt11char_traitsIcESaIcEEES5_EC1IJOS5_EJLm0EEJEJEEERSt5tupleIJDpT_EERSA_IJDpT1_EESt12_Index_tupleIJXspT0_EEESJ_IJXspT2_EEE, symObjAddr: 0x82B8, symBinAddr: 0x10000BE54, symSize: 0x58 }
  - { offsetInCU: 0x132FB, offset: 0x132FB, size: 0x8, addend: 0x0, symName: __ZNSt4pairIKNSt7__cxx1112basic_stringIcSt11char_traitsIcESaIcEEESt13unordered_mapIS5_S5_St4hashIS5_ESt8equal_toIS5_ESaIS_IS6_S5_EEEEC1IJRS6_EJLm0EEJEJEEERSt5tupleIJDpT_EERSI_IJDpT1_EESt12_Index_tupleIJXspT0_EEESR_IJXspT2_EEE, symObjAddr: 0x8240, symBinAddr: 0x10000BDDC, symSize: 0x78 }
  - { offsetInCU: 0x13293, offset: 0x13293, size: 0x8, addend: 0x0, symName: __ZSt7forwardIRKSt4pairIKNSt7__cxx1112basic_stringIcSt11char_traitsIcESaIcEEESt13unordered_mapIS6_S6_St4hashIS6_ESt8equal_toIS6_ESaIS0_IS7_S6_EEEEEOT_RNSt16remove_referenceISJ_E4typeE, symObjAddr: 0x822C, symBinAddr: 0x10000BDC8, symSize: 0x14 }
  - { offsetInCU: 0x132DB, offset: 0x132DB, size: 0x8, addend: 0x0, symName: __ZSt11__addressofINSt8__detail10_Hash_nodeISt4pairIKNSt7__cxx1112basic_stringIcSt11char_traitsIcESaIcEEESt13unordered_mapIS8_S8_St4hashIS8_ESt8equal_toIS8_ESaIS2_IS9_S8_EEEELb1EEEEPT_RSK_, symObjAddr: 0x8218, symBinAddr: 0x10000BDB4, symSize: 0x14 }
  - { offsetInCU: 0x13316, offset: 0x13316, size: 0x8, addend: 0x0, symName: __ZNK9__gnu_cxx16__aligned_bufferISt4pairIKNSt7__cxx1112basic_stringIcSt11char_traitsIcESaIcEEES7_EE7_M_addrEv, symObjAddr: 0x8204, symBinAddr: 0x10000BDA0, symSize: 0x14 }
  - { offsetInCU: 0x1333B, offset: 0x1333B, size: 0x8, addend: 0x0, symName: __ZSt11__addressofINSt8__detail10_Hash_nodeISt4pairIKNSt7__cxx1112basic_stringIcSt11char_traitsIcESaIcEEES8_ELb1EEEEPT_RSC_, symObjAddr: 0x81F0, symBinAddr: 0x10000BD8C, symSize: 0x14 }
  - { offsetInCU: 0x1345D, offset: 0x1345D, size: 0x8, addend: 0x0, symName: __ZNSt4pairIKNSt7__cxx1112basic_stringIcSt11char_traitsIcESaIcEEES5_EC1ERKS7_, symObjAddr: 0x8190, symBinAddr: 0x10000BD2C, symSize: 0x60 }
  - { offsetInCU: 0x13443, offset: 0x13443, size: 0x8, addend: 0x0, symName: __ZNSt15__new_allocatorIPNSt8__detail15_Hash_node_baseEE8allocateEmPKv, symObjAddr: 0x8114, symBinAddr: 0x10000BCB0, symSize: 0x7C }
  - { offsetInCU: 0x1359D, offset: 0x1359D, size: 0x8, addend: 0x0, symName: __ZNSt4pairIKNSt7__cxx1112basic_stringIcSt11char_traitsIcESaIcEEES5_EC1IJRS6_EJEEESt21piecewise_construct_tSt5tupleIJDpT_EESB_IJDpT0_EE, symObjAddr: 0x80D8, symBinAddr: 0x10000BC74, symSize: 0x3C }
  - { offsetInCU: 0x13568, offset: 0x13568, size: 0x8, addend: 0x0, symName: __ZSt22__copy_move_backward_aILb0EPPNSt7__cxx1112basic_stringIcSt11char_traitsIcESaIcEEES7_ET1_T0_S9_S8_, symObjAddr: 0x8078, symBinAddr: 0x10000BC14, symSize: 0x60 }
  - { offsetInCU: 0x135CD, offset: 0x135CD, size: 0x8, addend: 0x0, symName: __ZSt13__copy_move_aILb0EPPNSt7__cxx1112basic_stringIcSt11char_traitsIcESaIcEEES7_ET1_T0_S9_S8_, symObjAddr: 0x8018, symBinAddr: 0x10000BBB4, symSize: 0x60 }
  - { offsetInCU: 0x13632, offset: 0x13632, size: 0x8, addend: 0x0, symName: __ZSt12__miter_baseIPPNSt7__cxx1112basic_stringIcSt11char_traitsIcESaIcEEEET_S8_, symObjAddr: 0x8004, symBinAddr: 0x10000BBA0, symSize: 0x14 }
  - { offsetInCU: 0x13736, offset: 0x13736, size: 0x8, addend: 0x0, symName: __ZNSt4pairIKNSt7__cxx1112basic_stringIcSt11char_traitsIcESaIcEEES5_EC1IJOS5_EJEEESt21piecewise_construct_tSt5tupleIJDpT_EESB_IJDpT0_EE, symObjAddr: 0x7FC8, symBinAddr: 0x10000BB64, symSize: 0x3C }
  - { offsetInCU: 0x13780, offset: 0x13780, size: 0x8, addend: 0x0, symName: __ZNSt11_Tuple_implILm0EJONSt7__cxx1112basic_stringIcSt11char_traitsIcESaIcEEEEEC2EOS7_, symObjAddr: 0x7FA0, symBinAddr: 0x10000BB3C, symSize: 0x28 }
  - { offsetInCU: 0x1386A, offset: 0x1386A, size: 0x8, addend: 0x0, symName: __ZNSt4pairIKNSt7__cxx1112basic_stringIcSt11char_traitsIcESaIcEEESt13unordered_mapIS5_S5_St4hashIS5_ESt8equal_toIS5_ESaIS_IS6_S5_EEEEC1IJRS6_EJEEESt21piecewise_construct_tSt5tupleIJDpT_EESJ_IJDpT0_EE, symObjAddr: 0x7F64, symBinAddr: 0x10000BB00, symSize: 0x3C }
  - { offsetInCU: 0x13875, offset: 0x13875, size: 0x8, addend: 0x0, symName: __ZNSt11_Tuple_implILm0EJRKNSt7__cxx1112basic_stringIcSt11char_traitsIcESaIcEEEEEC2EOS8_, symObjAddr: 0x7F3C, symBinAddr: 0x10000BAD8, symSize: 0x28 }
  - { offsetInCU: 0x1385B, offset: 0x1385B, size: 0x8, addend: 0x0, symName: __ZNKSt8__detail10_Select1stclIRKSt4pairIKNSt7__cxx1112basic_stringIcSt11char_traitsIcESaIcEEESt13unordered_mapIS8_S8_St4hashIS8_ESt8equal_toIS8_ESaIS2_IS9_S8_EEEEEEONS0_10__1st_typeIT_E4typeEOSM_, symObjAddr: 0x7F1C, symBinAddr: 0x10000BAB8, symSize: 0x20 }
  - { offsetInCU: 0x138B4, offset: 0x138B4, size: 0x8, addend: 0x0, symName: __ZNKSt8__detail15_Hashtable_baseINSt7__cxx1112basic_stringIcSt11char_traitsIcESaIcEEESt4pairIKS6_St13unordered_mapIS6_S6_St4hashIS6_ESt8equal_toIS6_ESaIS7_IS8_S6_EEEENS_10_Select1stESD_SB_NS_18_Mod_range_hashingENS_20_Default_ranged_hashENS_17_Hashtable_traitsILb1ELb0ELb1EEEE5_M_eqEv, symObjAddr: 0x7F00, symBinAddr: 0x10000BA9C, symSize: 0x1C }
  - { offsetInCU: 0x138DA, offset: 0x138DA, size: 0x8, addend: 0x0, symName: __ZSt9addressofINSt8__detail10_Hash_nodeISt4pairIKNSt7__cxx1112basic_stringIcSt11char_traitsIcESaIcEEESt13unordered_mapIS8_S8_St4hashIS8_ESt8equal_toIS8_ESaIS2_IS9_S8_EEEELb1EEEEPT_RSK_, symObjAddr: 0x7EE4, symBinAddr: 0x10000BA80, symSize: 0x1C }
  - { offsetInCU: 0x13910, offset: 0x13910, size: 0x8, addend: 0x0, symName: __ZNK9__gnu_cxx16__aligned_bufferISt4pairIKNSt7__cxx1112basic_stringIcSt11char_traitsIcESaIcEEES7_EE6_M_ptrEv, symObjAddr: 0x7EC8, symBinAddr: 0x10000BA64, symSize: 0x1C }
  - { offsetInCU: 0x139E3, offset: 0x139E3, size: 0x8, addend: 0x0, symName: __ZNSt4pairIKNSt7__cxx1112basic_stringIcSt11char_traitsIcESaIcEEES5_EC1EOS7_, symObjAddr: 0x7E84, symBinAddr: 0x10000BA20, symSize: 0x44 }
  - { offsetInCU: 0x139C6, offset: 0x139C6, size: 0x8, addend: 0x0, symName: __ZSt11__addressofIPNSt8__detail15_Hash_node_baseEEPT_RS3_, symObjAddr: 0x7E70, symBinAddr: 0x10000BA0C, symSize: 0x14 }
  - { offsetInCU: 0x139F8, offset: 0x139F8, size: 0x8, addend: 0x0, symName: __ZSt9addressofINSt8__detail10_Hash_nodeISt4pairIKNSt7__cxx1112basic_stringIcSt11char_traitsIcESaIcEEES8_ELb1EEEEPT_RSC_, symObjAddr: 0x7E54, symBinAddr: 0x10000B9F0, symSize: 0x1C }
  - { offsetInCU: 0x13AC8, offset: 0x13AC8, size: 0x8, addend: 0x0, symName: __ZSt12__to_addressIPNSt8__detail15_Hash_node_baseEEPT_S4_, symObjAddr: 0x7E40, symBinAddr: 0x10000B9DC, symSize: 0x14 }
  - { offsetInCU: 0x13B80, offset: 0x13B80, size: 0x8, addend: 0x0, symName: __ZSt13copy_backwardIPPNSt7__cxx1112basic_stringIcSt11char_traitsIcESaIcEEES7_ET0_T_S9_S8_, symObjAddr: 0x7DF8, symBinAddr: 0x10000B994, symSize: 0x48 }
  - { offsetInCU: 0x13BDB, offset: 0x13BDB, size: 0x8, addend: 0x0, symName: __ZSt4copyIPPNSt7__cxx1112basic_stringIcSt11char_traitsIcESaIcEEES7_ET0_T_S9_S8_, symObjAddr: 0x7DB0, symBinAddr: 0x10000B94C, symSize: 0x48 }
  - { offsetInCU: 0x13C3A, offset: 0x13C3A, size: 0x8, addend: 0x0, symName: __ZNSt15__new_allocatorINSt8__detail10_Hash_nodeISt4pairIKNSt7__cxx1112basic_stringIcSt11char_traitsIcESaIcEEES8_ELb1EEEE10deallocateEPSB_m, symObjAddr: 0x7D74, symBinAddr: 0x10000B910, symSize: 0x3C }
  - { offsetInCU: 0x13D41, offset: 0x13D41, size: 0x8, addend: 0x0, symName: __ZNSt5tupleIJONSt7__cxx1112basic_stringIcSt11char_traitsIcESaIcEEEEEC1EOS7_, symObjAddr: 0x7D4C, symBinAddr: 0x10000B8E8, symSize: 0x28 }
  - { offsetInCU: 0x13D28, offset: 0x13D28, size: 0x8, addend: 0x0, symName: __ZNSt15__new_allocatorINSt8__detail10_Hash_nodeISt4pairIKNSt7__cxx1112basic_stringIcSt11char_traitsIcESaIcEEES8_ELb1EEEE8allocateEmPKv, symObjAddr: 0x7CBC, symBinAddr: 0x10000B858, symSize: 0x90 }
  - { offsetInCU: 0x13E3C, offset: 0x13E3C, size: 0x8, addend: 0x0, symName: __ZNSt10_Head_baseILm0EONSt7__cxx1112basic_stringIcSt11char_traitsIcESaIcEEELb0EEC2IS5_EEOT_, symObjAddr: 0x7C8C, symBinAddr: 0x10000B828, symSize: 0x30 }
  - { offsetInCU: 0x13E18, offset: 0x13E18, size: 0x8, addend: 0x0, symName: __ZNSt8__detail15_Hashtable_baseINSt7__cxx1112basic_stringIcSt11char_traitsIcESaIcEEESt4pairIKS6_S6_ENS_10_Select1stESt8equal_toIS6_ESt4hashIS6_ENS_18_Mod_range_hashingENS_20_Default_ranged_hashENS_17_Hashtable_traitsILb1ELb0ELb1EEEE9_S_equalsEmRKNS_21_Hash_node_code_cacheILb1EEE, symObjAddr: 0x7C60, symBinAddr: 0x10000B7FC, symSize: 0x2C }
  - { offsetInCU: 0x13E55, offset: 0x13E55, size: 0x8, addend: 0x0, symName: __ZNSt8__detail16_Hashtable_allocISaINS_10_Hash_nodeISt4pairIKNSt7__cxx1112basic_stringIcSt11char_traitsIcESaIcEEESt13unordered_mapIS8_S8_St4hashIS8_ESt8equal_toIS8_ESaIS2_IS9_S8_EEEELb1EEEEE19_M_allocate_bucketsEm, symObjAddr: 0x7BB0, symBinAddr: 0x10000B74C, symSize: 0xB0 }
  - { offsetInCU: 0x13F7B, offset: 0x13F7B, size: 0x8, addend: 0x0, symName: __ZNSt15__new_allocatorINSt8__detail10_Hash_nodeISt4pairIKNSt7__cxx1112basic_stringIcSt11char_traitsIcESaIcEEESt13unordered_mapIS8_S8_St4hashIS8_ESt8equal_toIS8_ESaIS2_IS9_S8_EEEELb1EEEE10deallocateEPSJ_m, symObjAddr: 0x7B6C, symBinAddr: 0x10000B708, symSize: 0x44 }
  - { offsetInCU: 0x14083, offset: 0x14083, size: 0x8, addend: 0x0, symName: __ZNSt5tupleIJRKNSt7__cxx1112basic_stringIcSt11char_traitsIcESaIcEEEEEC1EOS8_, symObjAddr: 0x7B44, symBinAddr: 0x10000B6E0, symSize: 0x28 }
  - { offsetInCU: 0x14069, offset: 0x14069, size: 0x8, addend: 0x0, symName: __ZNSt15__new_allocatorINSt8__detail10_Hash_nodeISt4pairIKNSt7__cxx1112basic_stringIcSt11char_traitsIcESaIcEEESt13unordered_mapIS8_S8_St4hashIS8_ESt8equal_toIS8_ESaIS2_IS9_S8_EEEELb1EEEE8allocateEmPKv, symObjAddr: 0x7A9C, symBinAddr: 0x10000B638, symSize: 0xA8 }
  - { offsetInCU: 0x140F5, offset: 0x140F5, size: 0x8, addend: 0x0, symName: __ZNKSt8__detail15_Hashtable_baseINSt7__cxx1112basic_stringIcSt11char_traitsIcESaIcEEESt4pairIKS6_St13unordered_mapIS6_S6_St4hashIS6_ESt8equal_toIS6_ESaIS7_IS8_S6_EEEENS_10_Select1stESD_SB_NS_18_Mod_range_hashingENS_20_Default_ranged_hashENS_17_Hashtable_traitsILb1ELb0ELb1EEEE13_M_key_equalsERS8_RKNS_16_Hash_node_valueISH_Lb1EEE, symObjAddr: 0x7A30, symBinAddr: 0x10000B5CC, symSize: 0x6C }
  - { offsetInCU: 0x14183, offset: 0x14183, size: 0x8, addend: 0x0, symName: __ZNSt8__detail15_Hashtable_baseINSt7__cxx1112basic_stringIcSt11char_traitsIcESaIcEEESt4pairIKS6_St13unordered_mapIS6_S6_St4hashIS6_ESt8equal_toIS6_ESaIS7_IS8_S6_EEEENS_10_Select1stESD_SB_NS_18_Mod_range_hashingENS_20_Default_ranged_hashENS_17_Hashtable_traitsILb1ELb0ELb1EEEE9_S_equalsEmRKNS_21_Hash_node_code_cacheILb1EEE, symObjAddr: 0x7A04, symBinAddr: 0x10000B5A0, symSize: 0x2C }
  - { offsetInCU: 0x141BC, offset: 0x141BC, size: 0x8, addend: 0x0, symName: __ZNSt19__ptr_traits_ptr_toIPNSt8__detail10_Hash_nodeISt4pairIKNSt7__cxx1112basic_stringIcSt11char_traitsIcESaIcEEESt13unordered_mapIS8_S8_St4hashIS8_ESt8equal_toIS8_ESaIS2_IS9_S8_EEEELb1EEESJ_Lb0EE10pointer_toERSJ_, symObjAddr: 0x79E8, symBinAddr: 0x10000B584, symSize: 0x1C }
  - { offsetInCU: 0x142C2, offset: 0x142C2, size: 0x8, addend: 0x0, symName: __ZNSt4pairIKNSt7__cxx1112basic_stringIcSt11char_traitsIcESaIcEEESt13unordered_mapIS5_S5_St4hashIS5_ESt8equal_toIS5_ESaIS_IS6_S5_EEEED1Ev, symObjAddr: 0x79BC, symBinAddr: 0x10000B558, symSize: 0x2C }
  - { offsetInCU: 0x14263, offset: 0x14263, size: 0x8, addend: 0x0, symName: __ZNSt8__detail21_Hashtable_ebo_helperILi0ESaINS_10_Hash_nodeISt4pairIKNSt7__cxx1112basic_stringIcSt11char_traitsIcESaIcEEESt13unordered_mapIS8_S8_St4hashIS8_ESt8equal_toIS8_ESaIS2_IS9_S8_EEEELb1EEEELb1EE6_M_getEv, symObjAddr: 0x79A8, symBinAddr: 0x10000B544, symSize: 0x14 }
  - { offsetInCU: 0x142A3, offset: 0x142A3, size: 0x8, addend: 0x0, symName: __ZNSt15__new_allocatorIPNSt7__cxx1112basic_stringIcSt11char_traitsIcESaIcEEEE8allocateEmPKv, symObjAddr: 0x792C, symBinAddr: 0x10000B4C8, symSize: 0x7C }
  - { offsetInCU: 0x14346, offset: 0x14346, size: 0x8, addend: 0x0, symName: __ZSteqIcSt11char_traitsIcESaIcEEbRKNSt7__cxx1112basic_stringIT_T0_T1_EESA_, symObjAddr: 0x78AC, symBinAddr: 0x10000B448, symSize: 0x80 }
  - { offsetInCU: 0x143B4, offset: 0x143B4, size: 0x8, addend: 0x0, symName: __ZNKSt8__detail21_Hashtable_ebo_helperILi0ESt8equal_toINSt7__cxx1112basic_stringIcSt11char_traitsIcESaIcEEEELb1EE7_M_cgetEv, symObjAddr: 0x7898, symBinAddr: 0x10000B434, symSize: 0x14 }
  - { offsetInCU: 0x14422, offset: 0x14422, size: 0x8, addend: 0x0, symName: __ZNSt15__new_allocatorIPNSt8__detail15_Hash_node_baseEE10deallocateEPS2_m, symObjAddr: 0x7868, symBinAddr: 0x10000B404, symSize: 0x30 }
  - { offsetInCU: 0x144C8, offset: 0x144C8, size: 0x8, addend: 0x0, symName: __ZNSt15__new_allocatorIPNSt8__detail15_Hash_node_baseEED2Ev, symObjAddr: 0x7854, symBinAddr: 0x10000B3F0, symSize: 0x14 }
  - { offsetInCU: 0x144C8, offset: 0x144C8, size: 0x8, addend: 0x0, symName: __ZSt9addressofIPNSt8__detail15_Hash_node_baseEEPT_RS3_, symObjAddr: 0x7838, symBinAddr: 0x10000B3D4, symSize: 0x1C }
  - { offsetInCU: 0x144FA, offset: 0x144FA, size: 0x8, addend: 0x0, symName: __ZNSt19__ptr_traits_ptr_toIPNSt8__detail10_Hash_nodeISt4pairIKNSt7__cxx1112basic_stringIcSt11char_traitsIcESaIcEEES8_ELb1EEESB_Lb0EE10pointer_toERSB_, symObjAddr: 0x781C, symBinAddr: 0x10000B3B8, symSize: 0x1C }
  - { offsetInCU: 0x1454F, offset: 0x1454F, size: 0x8, addend: 0x0, symName: __ZSt19__relocate_object_aINSt7__cxx1112basic_stringIcSt11char_traitsIcESaIcEEES5_SaIS5_EEvPT_PT0_RT1_, symObjAddr: 0x774C, symBinAddr: 0x10000B2E8, symSize: 0xD0 }
  - { offsetInCU: 0x14698, offset: 0x14698, size: 0x8, addend: 0x0, symName: __ZNSt8__detail16_Hashtable_allocISaINS_10_Hash_nodeISt4pairIKNSt7__cxx1112basic_stringIcSt11char_traitsIcESaIcEEES8_ELb1EEEEE16_M_allocate_nodeIJRKSA_EEEPSB_DpOT_, symObjAddr: 0x75D8, symBinAddr: 0x10000B174, symSize: 0x174 }
  - { offsetInCU: 0x14806, offset: 0x14806, size: 0x8, addend: 0x0, symName: __ZSt7forwardIRKSt4pairIKNSt7__cxx1112basic_stringIcSt11char_traitsIcESaIcEEES6_EEOT_RNSt16remove_referenceISB_E4typeE, symObjAddr: 0x75C4, symBinAddr: 0x10000B160, symSize: 0x14 }
  - { offsetInCU: 0x1483C, offset: 0x1483C, size: 0x8, addend: 0x0, symName: __ZNSt8__detail16_Hashtable_allocISaINS_10_Hash_nodeISt4pairIKNSt7__cxx1112basic_stringIcSt11char_traitsIcESaIcEEES8_ELb1EEEEE19_M_allocate_bucketsEm, symObjAddr: 0x7514, symBinAddr: 0x10000B0B0, symSize: 0xB0 }
  - { offsetInCU: 0x14967, offset: 0x14967, size: 0x8, addend: 0x0, symName: __ZN9__gnu_cxx16__aligned_bufferISt4pairIKNSt7__cxx1112basic_stringIcSt11char_traitsIcESaIcEEESt13unordered_mapIS7_S7_St4hashIS7_ESt8equal_toIS7_ESaIS1_IS8_S7_EEEEE7_M_addrEv, symObjAddr: 0x7500, symBinAddr: 0x10000B09C, symSize: 0x14 }
  - { offsetInCU: 0x149ED, offset: 0x149ED, size: 0x8, addend: 0x0, symName: __ZN9__gnu_cxx16__aligned_bufferISt4pairIKNSt7__cxx1112basic_stringIcSt11char_traitsIcESaIcEEES7_EE7_M_addrEv, symObjAddr: 0x74EC, symBinAddr: 0x10000B088, symSize: 0x14 }
  - { offsetInCU: 0x14A16, offset: 0x14A16, size: 0x8, addend: 0x0, symName: __ZNSt5dequeINSt7__cxx1112basic_stringIcSt11char_traitsIcESaIcEEESaIS5_EE17_M_reallocate_mapEmb, symObjAddr: 0x72A8, symBinAddr: 0x10000AE44, symSize: 0x244 }
  - { offsetInCU: 0x14AC5, offset: 0x14AC5, size: 0x8, addend: 0x0, symName: __ZNSt5dequeINSt7__cxx1112basic_stringIcSt11char_traitsIcESaIcEEESaIS5_EE11_S_max_sizeERKS6_, symObjAddr: 0x7254, symBinAddr: 0x10000ADF0, symSize: 0x54 }
  - { offsetInCU: 0x14B81, offset: 0x14B81, size: 0x8, addend: 0x0, symName: __ZStmiRKSt15_Deque_iteratorINSt7__cxx1112basic_stringIcSt11char_traitsIcESaIcEEERS5_PS5_ESA_, symObjAddr: 0x71C0, symBinAddr: 0x10000AD5C, symSize: 0x94 }
  - { offsetInCU: 0x14C44, offset: 0x14C44, size: 0x8, addend: 0x0, symName: __ZSt12__to_addressINSt8__detail10_Hash_nodeISt4pairIKNSt7__cxx1112basic_stringIcSt11char_traitsIcESaIcEEES8_ELb1EEEEPT_SD_, symObjAddr: 0x71AC, symBinAddr: 0x10000AD48, symSize: 0x14 }
  - { offsetInCU: 0x14D26, offset: 0x14D26, size: 0x8, addend: 0x0, symName: __ZNSt11_Tuple_implILm0EJONSt7__cxx1112basic_stringIcSt11char_traitsIcESaIcEEEEEC2IS5_EEOT_, symObjAddr: 0x7170, symBinAddr: 0x10000AD0C, symSize: 0x3C }
  - { offsetInCU: 0x14D07, offset: 0x14D07, size: 0x8, addend: 0x0, symName: __ZNKSt8__detail15_Hashtable_baseINSt7__cxx1112basic_stringIcSt11char_traitsIcESaIcEEESt4pairIKS6_S6_ENS_10_Select1stESt8equal_toIS6_ESt4hashIS6_ENS_18_Mod_range_hashingENS_20_Default_ranged_hashENS_17_Hashtable_traitsILb1ELb0ELb1EEEE9_M_equalsERS8_mRKNS_16_Hash_node_valueIS9_Lb1EEE, symObjAddr: 0x7108, symBinAddr: 0x10000ACA4, symSize: 0x68 }
  - { offsetInCU: 0x14D61, offset: 0x14D61, size: 0x8, addend: 0x0, symName: __ZNKSt8__detail15_Hash_code_baseINSt7__cxx1112basic_stringIcSt11char_traitsIcESaIcEEESt4pairIKS6_St13unordered_mapIS6_S6_St4hashIS6_ESt8equal_toIS6_ESaIS7_IS8_S6_EEEENS_10_Select1stESB_NS_18_Mod_range_hashingENS_20_Default_ranged_hashELb1EE15_M_bucket_indexERKNS_16_Hash_node_valueISH_Lb1EEEm, symObjAddr: 0x70D8, symBinAddr: 0x10000AC74, symSize: 0x30 }
  - { offsetInCU: 0x14DAB, offset: 0x14DAB, size: 0x8, addend: 0x0, symName: __ZNSt10_HashtableINSt7__cxx1112basic_stringIcSt11char_traitsIcESaIcEEESt4pairIKS5_St13unordered_mapIS5_S5_St4hashIS5_ESt8equal_toIS5_ESaIS6_IS7_S5_EEEESaISG_ENSt8__detail10_Select1stESC_SA_NSI_18_Mod_range_hashingENSI_20_Default_ranged_hashENSI_20_Prime_rehash_policyENSI_17_Hashtable_traitsILb1ELb0ELb1EEEE19_M_allocate_bucketsEm, symObjAddr: 0x7080, symBinAddr: 0x10000AC1C, symSize: 0x58 }
  - { offsetInCU: 0x14DE1, offset: 0x14DE1, size: 0x8, addend: 0x0, symName: __ZSt11__addressofINSt8__detail20_Prime_rehash_policyEEPT_RS2_, symObjAddr: 0x706C, symBinAddr: 0x10000AC08, symSize: 0x14 }
  - { offsetInCU: 0x14E9D, offset: 0x14E9D, size: 0x8, addend: 0x0, symName: __ZSt12__to_addressINSt8__detail10_Hash_nodeISt4pairIKNSt7__cxx1112basic_stringIcSt11char_traitsIcESaIcEEESt13unordered_mapIS8_S8_St4hashIS8_ESt8equal_toIS8_ESaIS2_IS9_S8_EEEELb1EEEEPT_SL_, symObjAddr: 0x7058, symBinAddr: 0x10000ABF4, symSize: 0x14 }
  - { offsetInCU: 0x14F72, offset: 0x14F72, size: 0x8, addend: 0x0, symName: __ZNSt10_Head_baseILm0ERKNSt7__cxx1112basic_stringIcSt11char_traitsIcESaIcEEELb0EEC2ES7_, symObjAddr: 0x7034, symBinAddr: 0x10000ABD0, symSize: 0x24 }
  - { offsetInCU: 0x14F4D, offset: 0x14F4D, size: 0x8, addend: 0x0, symName: __ZNKSt10_HashtableINSt7__cxx1112basic_stringIcSt11char_traitsIcESaIcEEESt4pairIKS5_St13unordered_mapIS5_S5_St4hashIS5_ESt8equal_toIS5_ESaIS6_IS7_S5_EEEESaISG_ENSt8__detail10_Select1stESC_SA_NSI_18_Mod_range_hashingENSI_20_Default_ranged_hashENSI_20_Prime_rehash_policyENSI_17_Hashtable_traitsILb1ELb0ELb1EEEE15_M_bucket_indexERKNSI_16_Hash_node_valueISG_Lb1EEE, symObjAddr: 0x7004, symBinAddr: 0x10000ABA0, symSize: 0x30 }
  - { offsetInCU: 0x14F87, offset: 0x14F87, size: 0x8, addend: 0x0, symName: __ZNKSt8__detail15_Hashtable_baseINSt7__cxx1112basic_stringIcSt11char_traitsIcESaIcEEESt4pairIKS6_St13unordered_mapIS6_S6_St4hashIS6_ESt8equal_toIS6_ESaIS7_IS8_S6_EEEENS_10_Select1stESD_SB_NS_18_Mod_range_hashingENS_20_Default_ranged_hashENS_17_Hashtable_traitsILb1ELb0ELb1EEEE9_M_equalsERS8_mRKNS_16_Hash_node_valueISH_Lb1EEE, symObjAddr: 0x6F9C, symBinAddr: 0x10000AB38, symSize: 0x68 }
  - { offsetInCU: 0x14FE1, offset: 0x14FE1, size: 0x8, addend: 0x0, symName: __ZNKSt8__detail21_Hashtable_ebo_helperILi1ESt4hashINSt7__cxx1112basic_stringIcSt11char_traitsIcESaIcEEEELb1EE7_M_cgetEv, symObjAddr: 0x6F88, symBinAddr: 0x10000AB24, symSize: 0x14 }
  - { offsetInCU: 0x1502F, offset: 0x1502F, size: 0x8, addend: 0x0, symName: __ZNSt8__detail16_Hashtable_allocISaINS_10_Hash_nodeISt4pairIKNSt7__cxx1112basic_stringIcSt11char_traitsIcESaIcEEESt13unordered_mapIS8_S8_St4hashIS8_ESt8equal_toIS8_ESaIS2_IS9_S8_EEEELb1EEEEE22_M_deallocate_node_ptrEPSJ_, symObjAddr: 0x6F30, symBinAddr: 0x10000AACC, symSize: 0x58 }
  - { offsetInCU: 0x150DD, offset: 0x150DD, size: 0x8, addend: 0x0, symName: __ZNSt8__detail16_Hashtable_allocISaINS_10_Hash_nodeISt4pairIKNSt7__cxx1112basic_stringIcSt11char_traitsIcESaIcEEESt13unordered_mapIS8_S8_St4hashIS8_ESt8equal_toIS8_ESaIS2_IS9_S8_EEEELb1EEEEE17_M_node_allocatorEv, symObjAddr: 0x6F14, symBinAddr: 0x10000AAB0, symSize: 0x1C }
  - { offsetInCU: 0x15107, offset: 0x15107, size: 0x8, addend: 0x0, symName: __ZNSt15__new_allocatorIPNSt7__cxx1112basic_stringIcSt11char_traitsIcESaIcEEEE10deallocateEPS6_m, symObjAddr: 0x6EE4, symBinAddr: 0x10000AA80, symSize: 0x30 }
  - { offsetInCU: 0x151C3, offset: 0x151C3, size: 0x8, addend: 0x0, symName: __ZNSt15__new_allocatorIPNSt7__cxx1112basic_stringIcSt11char_traitsIcESaIcEEEED2Ev, symObjAddr: 0x6ED0, symBinAddr: 0x10000AA6C, symSize: 0x14 }
  - { offsetInCU: 0x151BF, offset: 0x151BF, size: 0x8, addend: 0x0, symName: __ZNKSt11_Deque_baseINSt7__cxx1112basic_stringIcSt11char_traitsIcESaIcEEESaIS5_EE19_M_get_Tp_allocatorEv, symObjAddr: 0x6EBC, symBinAddr: 0x10000AA58, symSize: 0x14 }
  - { offsetInCU: 0x151E6, offset: 0x151E6, size: 0x8, addend: 0x0, symName: __ZNSt15_Deque_iteratorINSt7__cxx1112basic_stringIcSt11char_traitsIcESaIcEEERS5_PS5_E14_S_buffer_sizeEv, symObjAddr: 0x6EA4, symBinAddr: 0x10000AA40, symSize: 0x18 }
  - { offsetInCU: 0x15294, offset: 0x15294, size: 0x8, addend: 0x0, symName: __ZNSt15_Deque_iteratorINSt7__cxx1112basic_stringIcSt11char_traitsIcESaIcEEERS5_PS5_EC1Ev, symObjAddr: 0x6E70, symBinAddr: 0x10000AA0C, symSize: 0x34 }
  - { offsetInCU: 0x15265, offset: 0x15265, size: 0x8, addend: 0x0, symName: __ZNKSt8__detail15_Hash_code_baseINSt7__cxx1112basic_stringIcSt11char_traitsIcESaIcEEESt4pairIKS6_S6_ENS_10_Select1stESt4hashIS6_ENS_18_Mod_range_hashingENS_20_Default_ranged_hashELb1EE15_M_bucket_indexERKNS_16_Hash_node_valueIS9_Lb1EEEm, symObjAddr: 0x6E40, symBinAddr: 0x10000A9DC, symSize: 0x30 }
  - { offsetInCU: 0x152D4, offset: 0x152D4, size: 0x8, addend: 0x0, symName: __ZSt7forwardIRNSt8__detail14_Node_iteratorISt4pairIKNSt7__cxx1112basic_stringIcSt11char_traitsIcESaIcEEES8_ELb0ELb1EEEEOT_RNSt16remove_referenceISD_E4typeE, symObjAddr: 0x6E2C, symBinAddr: 0x10000A9C8, symSize: 0x14 }
  - { offsetInCU: 0x1530C, offset: 0x1530C, size: 0x8, addend: 0x0, symName: __ZSt7forwardINSt8__detail14_Node_iteratorISt4pairIKNSt7__cxx1112basic_stringIcSt11char_traitsIcESaIcEEES8_ELb0ELb1EEEEOT_RNSt16remove_referenceISC_E4typeE, symObjAddr: 0x6E18, symBinAddr: 0x10000A9B4, symSize: 0x14 }
  - { offsetInCU: 0x15342, offset: 0x15342, size: 0x8, addend: 0x0, symName: __ZNKSt8equal_toINSt7__cxx1112basic_stringIcSt11char_traitsIcESaIcEEEEclERKS5_S8_, symObjAddr: 0x6DF0, symBinAddr: 0x10000A98C, symSize: 0x28 }
  - { offsetInCU: 0x1538C, offset: 0x1538C, size: 0x8, addend: 0x0, symName: __ZNKSt8__detail10_Select1stclIRKSt4pairIKNSt7__cxx1112basic_stringIcSt11char_traitsIcESaIcEEES8_EEEONS0_10__1st_typeIT_E4typeEOSE_, symObjAddr: 0x6DD0, symBinAddr: 0x10000A96C, symSize: 0x20 }
  - { offsetInCU: 0x153E5, offset: 0x153E5, size: 0x8, addend: 0x0, symName: __ZNKSt8__detail15_Hashtable_baseINSt7__cxx1112basic_stringIcSt11char_traitsIcESaIcEEESt4pairIKS6_S6_ENS_10_Select1stESt8equal_toIS6_ESt4hashIS6_ENS_18_Mod_range_hashingENS_20_Default_ranged_hashENS_17_Hashtable_traitsILb1ELb0ELb1EEEE5_M_eqEv, symObjAddr: 0x6DB4, symBinAddr: 0x10000A950, symSize: 0x1C }
  - { offsetInCU: 0x1540C, offset: 0x1540C, size: 0x8, addend: 0x0, symName: __ZNSt8__detail22_Hashtable_hash_traitsISt4hashINSt7__cxx1112basic_stringIcSt11char_traitsIcESaIcEEEEE22__small_size_thresholdEv, symObjAddr: 0x6DAC, symBinAddr: 0x10000A948, symSize: 0x8 }
  - { offsetInCU: 0x15429, offset: 0x15429, size: 0x8, addend: 0x0, symName: __ZSt7forwardIRSt4pairIKNSt7__cxx1112basic_stringIcSt11char_traitsIcESaIcEEES6_EEOT_RNSt16remove_referenceISA_E4typeE, symObjAddr: 0x6D98, symBinAddr: 0x10000A934, symSize: 0x14 }
  - { offsetInCU: 0x1545F, offset: 0x1545F, size: 0x8, addend: 0x0, symName: __ZNSt8__detail16_Hashtable_allocISaINS_10_Hash_nodeISt4pairIKNSt7__cxx1112basic_stringIcSt11char_traitsIcESaIcEEES8_ELb1EEEEE16_M_allocate_nodeIJSA_EEEPSB_DpOT_, symObjAddr: 0x6C24, symBinAddr: 0x10000A7C0, symSize: 0x174 }
  - { offsetInCU: 0x1563D, offset: 0x1563D, size: 0x8, addend: 0x0, symName: __ZNSt19__ptr_traits_ptr_toIPPNSt8__detail15_Hash_node_baseES2_Lb0EE10pointer_toERS2_, symObjAddr: 0x6C08, symBinAddr: 0x10000A7A4, symSize: 0x1C }
  - { offsetInCU: 0x1566A, offset: 0x1566A, size: 0x8, addend: 0x0, symName: __ZNSt8__detail16_Hashtable_allocISaINS_10_Hash_nodeISt4pairIKNSt7__cxx1112basic_stringIcSt11char_traitsIcESaIcEEES8_ELb1EEEEE22_M_deallocate_node_ptrEPSB_, symObjAddr: 0x6BB0, symBinAddr: 0x10000A74C, symSize: 0x58 }
  - { offsetInCU: 0x15718, offset: 0x15718, size: 0x8, addend: 0x0, symName: __ZNK9__gnu_cxx17__normal_iteratorIPKcNSt7__cxx1112basic_stringIcSt11char_traitsIcESaIcEEEEdeEv, symObjAddr: 0x6B98, symBinAddr: 0x10000A734, symSize: 0x18 }
  - { offsetInCU: 0x15742, offset: 0x15742, size: 0x8, addend: 0x0, symName: __ZN9__gnu_cxx17__normal_iteratorIPKcNSt7__cxx1112basic_stringIcSt11char_traitsIcESaIcEEEEmmEv, symObjAddr: 0x6B70, symBinAddr: 0x10000A70C, symSize: 0x28 }
  - { offsetInCU: 0x15768, offset: 0x15768, size: 0x8, addend: 0x0, symName: __ZSt14__relocate_a_1IPNSt7__cxx1112basic_stringIcSt11char_traitsIcESaIcEEES6_SaIS5_EET0_T_S9_S8_RT1_, symObjAddr: 0x6AEC, symBinAddr: 0x10000A688, symSize: 0x84 }
  - { offsetInCU: 0x157ED, offset: 0x157ED, size: 0x8, addend: 0x0, symName: __ZSt12__niter_baseIPNSt7__cxx1112basic_stringIcSt11char_traitsIcESaIcEEEET_S7_, symObjAddr: 0x6AD8, symBinAddr: 0x10000A674, symSize: 0x14 }
  - { offsetInCU: 0x15823, offset: 0x15823, size: 0x8, addend: 0x0, symName: __ZNSt15__new_allocatorINSt7__cxx1112basic_stringIcSt11char_traitsIcESaIcEEEE8allocateEmPKv, symObjAddr: 0x6A5C, symBinAddr: 0x10000A5F8, symSize: 0x7C }
  - { offsetInCU: 0x158AF, offset: 0x158AF, size: 0x8, addend: 0x0, symName: __ZNKSt12_Vector_baseINSt7__cxx1112basic_stringIcSt11char_traitsIcESaIcEEESaIS5_EE19_M_get_Tp_allocatorEv, symObjAddr: 0x6A48, symBinAddr: 0x10000A5E4, symSize: 0x14 }
  - { offsetInCU: 0x158D5, offset: 0x158D5, size: 0x8, addend: 0x0, symName: __ZNSt6vectorINSt7__cxx1112basic_stringIcSt11char_traitsIcESaIcEEESaIS5_EE11_S_max_sizeERKS6_, symObjAddr: 0x69F4, symBinAddr: 0x10000A590, symSize: 0x54 }
  - { offsetInCU: 0x1598B, offset: 0x1598B, size: 0x8, addend: 0x0, symName: __ZSt8_DestroyINSt7__cxx1112basic_stringIcSt11char_traitsIcESaIcEEEEvPT_, symObjAddr: 0x69D4, symBinAddr: 0x10000A570, symSize: 0x20 }
  - { offsetInCU: 0x159C1, offset: 0x159C1, size: 0x8, addend: 0x0, symName: __ZNSt10_HashtableINSt7__cxx1112basic_stringIcSt11char_traitsIcESaIcEEESt4pairIKS5_S5_ESaIS8_ENSt8__detail10_Select1stESt8equal_toIS5_ESt4hashIS5_ENSA_18_Mod_range_hashingENSA_20_Default_ranged_hashENSA_20_Prime_rehash_policyENSA_17_Hashtable_traitsILb1ELb0ELb1EEEE16_M_update_bbeginEPNSA_10_Hash_nodeIS8_Lb1EEE, symObjAddr: 0x69A4, symBinAddr: 0x10000A540, symSize: 0x30 }
  - { offsetInCU: 0x159FB, offset: 0x159FB, size: 0x8, addend: 0x0, symName: __ZNKSt8__detail15_Hash_code_baseINSt7__cxx1112basic_stringIcSt11char_traitsIcESaIcEEESt4pairIKS6_S6_ENS_10_Select1stESt4hashIS6_ENS_18_Mod_range_hashingENS_20_Default_ranged_hashELb1EE12_M_copy_codeERNS_21_Hash_node_code_cacheILb1EEERKSH_, symObjAddr: 0x6978, symBinAddr: 0x10000A514, symSize: 0x2C }
  - { offsetInCU: 0x15A50, offset: 0x15A50, size: 0x8, addend: 0x0, symName: __ZNKSt8__detail10_AllocNodeISaINS_10_Hash_nodeISt4pairIKNSt7__cxx1112basic_stringIcSt11char_traitsIcESaIcEEES8_ELb1EEEEEclIJRKSA_EEEPSB_DpOT_, symObjAddr: 0x693C, symBinAddr: 0x10000A4D8, symSize: 0x3C }
  - { offsetInCU: 0x15A90, offset: 0x15A90, size: 0x8, addend: 0x0, symName: __ZNSt10_HashtableINSt7__cxx1112basic_stringIcSt11char_traitsIcESaIcEEESt4pairIKS5_S5_ESaIS8_ENSt8__detail10_Select1stESt8equal_toIS5_ESt4hashIS5_ENSA_18_Mod_range_hashingENSA_20_Default_ranged_hashENSA_20_Prime_rehash_policyENSA_17_Hashtable_traitsILb1ELb0ELb1EEEE15__fwd_value_forIRKSL_EENSt13__conditionalIXsrSt19is_lvalue_referenceIT_E5valueEE4typeIRKS8_OS8_EERS8_, symObjAddr: 0x6920, symBinAddr: 0x10000A4BC, symSize: 0x1C }
  - { offsetInCU: 0x15AC6, offset: 0x15AC6, size: 0x8, addend: 0x0, symName: __ZNSt10_HashtableINSt7__cxx1112basic_stringIcSt11char_traitsIcESaIcEEESt4pairIKS5_S5_ESaIS8_ENSt8__detail10_Select1stESt8equal_toIS5_ESt4hashIS5_ENSA_18_Mod_range_hashingENSA_20_Default_ranged_hashENSA_20_Prime_rehash_policyENSA_17_Hashtable_traitsILb1ELb0ELb1EEEE19_M_allocate_bucketsEm, symObjAddr: 0x68C8, symBinAddr: 0x10000A464, symSize: 0x58 }
  - { offsetInCU: 0x15B16, offset: 0x15B16, size: 0x8, addend: 0x0, symName: __ZNKSt8__detail21_Hashtable_ebo_helperILi0ESaINS_10_Hash_nodeISt4pairIKNSt7__cxx1112basic_stringIcSt11char_traitsIcESaIcEEES8_ELb1EEEELb1EE7_M_cgetEv, symObjAddr: 0x68B4, symBinAddr: 0x10000A450, symSize: 0x14 }
  - { offsetInCU: 0x15B40, offset: 0x15B40, size: 0x8, addend: 0x0, symName: __ZN9__gnu_cxx16__aligned_bufferISt4pairIKNSt7__cxx1112basic_stringIcSt11char_traitsIcESaIcEEESt13unordered_mapIS7_S7_St4hashIS7_ESt8equal_toIS7_ESaIS1_IS8_S7_EEEEE6_M_ptrEv, symObjAddr: 0x6898, symBinAddr: 0x10000A434, symSize: 0x1C }
  - { offsetInCU: 0x15C57, offset: 0x15C57, size: 0x8, addend: 0x0, symName: __ZNSt8__detail19_Node_iterator_baseISt4pairIKNSt7__cxx1112basic_stringIcSt11char_traitsIcESaIcEEESt13unordered_mapIS7_S7_St4hashIS7_ESt8equal_toIS7_ESaIS1_IS8_S7_EEEELb1EEC2EPNS_10_Hash_nodeISH_Lb1EEE, symObjAddr: 0x6874, symBinAddr: 0x10000A410, symSize: 0x24 }
  - { offsetInCU: 0x15BC1, offset: 0x15BC1, size: 0x8, addend: 0x0, symName: __ZNSt8__detail16_Hashtable_allocISaINS_10_Hash_nodeISt4pairIKNSt7__cxx1112basic_stringIcSt11char_traitsIcESaIcEEES8_ELb1EEEEE16_M_allocate_nodeIJRKSt21piecewise_construct_tSt5tupleIJRS9_EESI_IJEEEEEPSB_DpOT_, symObjAddr: 0x6688, symBinAddr: 0x10000A224, symSize: 0x1EC }
  - { offsetInCU: 0x15D73, offset: 0x15D73, size: 0x8, addend: 0x0, symName: __ZN9__gnu_cxx16__aligned_bufferISt4pairIKNSt7__cxx1112basic_stringIcSt11char_traitsIcESaIcEEES7_EE6_M_ptrEv, symObjAddr: 0x666C, symBinAddr: 0x10000A208, symSize: 0x1C }
  - { offsetInCU: 0x15E49, offset: 0x15E49, size: 0x8, addend: 0x0, symName: __ZNSt8__detail19_Node_iterator_baseISt4pairIKNSt7__cxx1112basic_stringIcSt11char_traitsIcESaIcEEES7_ELb1EEC2EPNS_10_Hash_nodeIS9_Lb1EEE, symObjAddr: 0x6648, symBinAddr: 0x10000A1E4, symSize: 0x24 }
  - { offsetInCU: 0x15DF4, offset: 0x15DF4, size: 0x8, addend: 0x0, symName: __ZNSt11_Deque_baseINSt7__cxx1112basic_stringIcSt11char_traitsIcESaIcEEESaIS5_EE16_M_allocate_nodeEv, symObjAddr: 0x6604, symBinAddr: 0x10000A1A0, symSize: 0x44 }
  - { offsetInCU: 0x15E4B, offset: 0x15E4B, size: 0x8, addend: 0x0, symName: __ZNSt5dequeINSt7__cxx1112basic_stringIcSt11char_traitsIcESaIcEEESaIS5_EE22_M_reserve_map_at_backEm, symObjAddr: 0x65A4, symBinAddr: 0x10000A140, symSize: 0x60 }
  - { offsetInCU: 0x15E85, offset: 0x15E85, size: 0x8, addend: 0x0, symName: __ZNKSt5dequeINSt7__cxx1112basic_stringIcSt11char_traitsIcESaIcEEESaIS5_EE8max_sizeEv, symObjAddr: 0x6584, symBinAddr: 0x10000A120, symSize: 0x20 }
  - { offsetInCU: 0x15EAF, offset: 0x15EAF, size: 0x8, addend: 0x0, symName: __ZNKSt5dequeINSt7__cxx1112basic_stringIcSt11char_traitsIcESaIcEEESaIS5_EE4sizeEv, symObjAddr: 0x6554, symBinAddr: 0x10000A0F0, symSize: 0x30 }
  - { offsetInCU: 0x15ED9, offset: 0x15ED9, size: 0x8, addend: 0x0, symName: __ZNSt10_HashtableINSt7__cxx1112basic_stringIcSt11char_traitsIcESaIcEEESt4pairIKS5_S5_ESaIS8_ENSt8__detail10_Select1stESt8equal_toIS5_ESt4hashIS5_ENSA_18_Mod_range_hashingENSA_20_Default_ranged_hashENSA_20_Prime_rehash_policyENSA_17_Hashtable_traitsILb1ELb0ELb1EEEE22_M_insert_bucket_beginEmPNSA_10_Hash_nodeIS8_Lb1EEE, symObjAddr: 0x6448, symBinAddr: 0x100009FE4, symSize: 0x10C }
  - { offsetInCU: 0x15F23, offset: 0x15F23, size: 0x8, addend: 0x0, symName: __ZNKSt8__detail15_Hash_code_baseINSt7__cxx1112basic_stringIcSt11char_traitsIcESaIcEEESt4pairIKS6_S6_ENS_10_Select1stESt4hashIS6_ENS_18_Mod_range_hashingENS_20_Default_ranged_hashELb1EE13_M_store_codeERNS_21_Hash_node_code_cacheILb1EEEm, symObjAddr: 0x6420, symBinAddr: 0x100009FBC, symSize: 0x28 }
  - { offsetInCU: 0x15F6D, offset: 0x15F6D, size: 0x8, addend: 0x0, symName: __ZNSt10_HashtableINSt7__cxx1112basic_stringIcSt11char_traitsIcESaIcEEESt4pairIKS5_S5_ESaIS8_ENSt8__detail10_Select1stESt8equal_toIS5_ESt4hashIS5_ENSA_18_Mod_range_hashingENSA_20_Default_ranged_hashENSA_20_Prime_rehash_policyENSA_17_Hashtable_traitsILb1ELb0ELb1EEEE9_M_rehashEmSt17integral_constantIbLb1EE, symObjAddr: 0x62B4, symBinAddr: 0x100009E50, symSize: 0x16C }
  - { offsetInCU: 0x16019, offset: 0x16019, size: 0x8, addend: 0x0, symName: __ZNSt8__detail16_Hashtable_allocISaINS_10_Hash_nodeISt4pairIKNSt7__cxx1112basic_stringIcSt11char_traitsIcESaIcEEES8_ELb1EEEEE16_M_allocate_nodeIJRKSt21piecewise_construct_tSt5tupleIJOS8_EESI_IJEEEEEPSB_DpOT_, symObjAddr: 0x60C8, symBinAddr: 0x100009C64, symSize: 0x1EC }
  - { offsetInCU: 0x1624B, offset: 0x1624B, size: 0x8, addend: 0x0, symName: __ZNSt8__detail10_Hash_nodeISt4pairIKNSt7__cxx1112basic_stringIcSt11char_traitsIcESaIcEEES7_ELb1EEC1Ev, symObjAddr: 0x60A8, symBinAddr: 0x100009C44, symSize: 0x20 }
  - { offsetInCU: 0x16211, offset: 0x16211, size: 0x8, addend: 0x0, symName: __ZSt7forwardISt5tupleIJONSt7__cxx1112basic_stringIcSt11char_traitsIcESaIcEEEEEEOT_RNSt16remove_referenceIS9_E4typeE, symObjAddr: 0x6094, symBinAddr: 0x100009C30, symSize: 0x14 }
  - { offsetInCU: 0x162DA, offset: 0x162DA, size: 0x8, addend: 0x0, symName: __ZNSt5tupleIJONSt7__cxx1112basic_stringIcSt11char_traitsIcESaIcEEEEEC1IJS5_ELb1ELb1EEEDpOT_, symObjAddr: 0x6058, symBinAddr: 0x100009BF4, symSize: 0x3C }
  - { offsetInCU: 0x162CF, offset: 0x162CF, size: 0x8, addend: 0x0, symName: __ZSt7forwardINSt7__cxx1112basic_stringIcSt11char_traitsIcESaIcEEEEOT_RNSt16remove_referenceIS6_E4typeE, symObjAddr: 0x6044, symBinAddr: 0x100009BE0, symSize: 0x14 }
  - { offsetInCU: 0x16305, offset: 0x16305, size: 0x8, addend: 0x0, symName: __ZNKSt10_HashtableINSt7__cxx1112basic_stringIcSt11char_traitsIcESaIcEEESt4pairIKS5_S5_ESaIS8_ENSt8__detail10_Select1stESt8equal_toIS5_ESt4hashIS5_ENSA_18_Mod_range_hashingENSA_20_Default_ranged_hashENSA_20_Prime_rehash_policyENSA_17_Hashtable_traitsILb1ELb0ELb1EEEE19_M_find_before_nodeEmRS7_m, symObjAddr: 0x5F48, symBinAddr: 0x100009AE4, symSize: 0xFC }
  - { offsetInCU: 0x16394, offset: 0x16394, size: 0x8, addend: 0x0, symName: __ZNKSt8__detail15_Hash_code_baseINSt7__cxx1112basic_stringIcSt11char_traitsIcESaIcEEESt4pairIKS6_S6_ENS_10_Select1stESt4hashIS6_ENS_18_Mod_range_hashingENS_20_Default_ranged_hashELb1EE15_M_bucket_indexEmm, symObjAddr: 0x5F1C, symBinAddr: 0x100009AB8, symSize: 0x2C }
  - { offsetInCU: 0x163DE, offset: 0x163DE, size: 0x8, addend: 0x0, symName: __ZNKSt8__detail15_Hash_code_baseINSt7__cxx1112basic_stringIcSt11char_traitsIcESaIcEEESt4pairIKS6_S6_ENS_10_Select1stESt4hashIS6_ENS_18_Mod_range_hashingENS_20_Default_ranged_hashELb1EE7_M_hashEv, symObjAddr: 0x5F00, symBinAddr: 0x100009A9C, symSize: 0x1C }
  - { offsetInCU: 0x16408, offset: 0x16408, size: 0x8, addend: 0x0, symName: __ZNSt10_HashtableINSt7__cxx1112basic_stringIcSt11char_traitsIcESaIcEEESt4pairIKS5_St13unordered_mapIS5_S5_St4hashIS5_ESt8equal_toIS5_ESaIS6_IS7_S5_EEEESaISG_ENSt8__detail10_Select1stESC_SA_NSI_18_Mod_range_hashingENSI_20_Default_ranged_hashENSI_20_Prime_rehash_policyENSI_17_Hashtable_traitsILb1ELb0ELb1EEEE22_M_insert_bucket_beginEmPNSI_10_Hash_nodeISG_Lb1EEE, symObjAddr: 0x5DF4, symBinAddr: 0x100009990, symSize: 0x10C }
  - { offsetInCU: 0x16452, offset: 0x16452, size: 0x8, addend: 0x0, symName: __ZNKSt8__detail15_Hash_code_baseINSt7__cxx1112basic_stringIcSt11char_traitsIcESaIcEEESt4pairIKS6_St13unordered_mapIS6_S6_St4hashIS6_ESt8equal_toIS6_ESaIS7_IS8_S6_EEEENS_10_Select1stESB_NS_18_Mod_range_hashingENS_20_Default_ranged_hashELb1EE13_M_store_codeERNS_21_Hash_node_code_cacheILb1EEEm, symObjAddr: 0x5DCC, symBinAddr: 0x100009968, symSize: 0x28 }
  - { offsetInCU: 0x1649C, offset: 0x1649C, size: 0x8, addend: 0x0, symName: __ZNSt10_HashtableINSt7__cxx1112basic_stringIcSt11char_traitsIcESaIcEEESt4pairIKS5_St13unordered_mapIS5_S5_St4hashIS5_ESt8equal_toIS5_ESaIS6_IS7_S5_EEEESaISG_ENSt8__detail10_Select1stESC_SA_NSI_18_Mod_range_hashingENSI_20_Default_ranged_hashENSI_20_Prime_rehash_policyENSI_17_Hashtable_traitsILb1ELb0ELb1EEEE9_M_rehashEmSt17integral_constantIbLb1EE, symObjAddr: 0x5C60, symBinAddr: 0x1000097FC, symSize: 0x16C }
  - { offsetInCU: 0x165AA, offset: 0x165AA, size: 0x8, addend: 0x0, symName: __ZNSt8__detail17_RehashStateGuardINS_20_Prime_rehash_policyEED1Ev, symObjAddr: 0x5C1C, symBinAddr: 0x1000097B8, symSize: 0x44 }
  - { offsetInCU: 0x165FB, offset: 0x165FB, size: 0x8, addend: 0x0, symName: __ZNSt8__detail17_RehashStateGuardINS_20_Prime_rehash_policyEEC1ERS1_, symObjAddr: 0x5BD8, symBinAddr: 0x100009774, symSize: 0x44 }
  - { offsetInCU: 0x165E9, offset: 0x165E9, size: 0x8, addend: 0x0, symName: __ZNSt8__detail16_Hashtable_allocISaINS_10_Hash_nodeISt4pairIKNSt7__cxx1112basic_stringIcSt11char_traitsIcESaIcEEESt13unordered_mapIS8_S8_St4hashIS8_ESt8equal_toIS8_ESaIS2_IS9_S8_EEEELb1EEEEE16_M_allocate_nodeIJRKSt21piecewise_construct_tSt5tupleIJRS9_EESQ_IJEEEEEPSJ_DpOT_, symObjAddr: 0x59EC, symBinAddr: 0x100009588, symSize: 0x1EC }
  - { offsetInCU: 0x1685C, offset: 0x1685C, size: 0x8, addend: 0x0, symName: __ZNSt8__detail10_Hash_nodeISt4pairIKNSt7__cxx1112basic_stringIcSt11char_traitsIcESaIcEEESt13unordered_mapIS7_S7_St4hashIS7_ESt8equal_toIS7_ESaIS1_IS8_S7_EEEELb1EEC1Ev, symObjAddr: 0x59CC, symBinAddr: 0x100009568, symSize: 0x20 }
  - { offsetInCU: 0x167E1, offset: 0x167E1, size: 0x8, addend: 0x0, symName: __ZSt7forwardISt5tupleIJEEEOT_RNSt16remove_referenceIS2_E4typeE, symObjAddr: 0x59B8, symBinAddr: 0x100009554, symSize: 0x14 }
  - { offsetInCU: 0x16819, offset: 0x16819, size: 0x8, addend: 0x0, symName: __ZSt7forwardISt5tupleIJRKNSt7__cxx1112basic_stringIcSt11char_traitsIcESaIcEEEEEEOT_RNSt16remove_referenceISA_E4typeE, symObjAddr: 0x59A4, symBinAddr: 0x100009540, symSize: 0x14 }
  - { offsetInCU: 0x16851, offset: 0x16851, size: 0x8, addend: 0x0, symName: __ZSt7forwardIRKSt21piecewise_construct_tEOT_RNSt16remove_referenceIS3_E4typeE, symObjAddr: 0x5990, symBinAddr: 0x10000952C, symSize: 0x14 }
  - { offsetInCU: 0x16902, offset: 0x16902, size: 0x8, addend: 0x0, symName: __ZNSt11_Tuple_implILm0EJRKNSt7__cxx1112basic_stringIcSt11char_traitsIcESaIcEEEEEC2ES7_, symObjAddr: 0x5968, symBinAddr: 0x100009504, symSize: 0x28 }
  - { offsetInCU: 0x168DE, offset: 0x168DE, size: 0x8, addend: 0x0, symName: __ZNKSt10_HashtableINSt7__cxx1112basic_stringIcSt11char_traitsIcESaIcEEESt4pairIKS5_St13unordered_mapIS5_S5_St4hashIS5_ESt8equal_toIS5_ESaIS6_IS7_S5_EEEESaISG_ENSt8__detail10_Select1stESC_SA_NSI_18_Mod_range_hashingENSI_20_Default_ranged_hashENSI_20_Prime_rehash_policyENSI_17_Hashtable_traitsILb1ELb0ELb1EEEE19_M_find_before_nodeEmRS7_m, symObjAddr: 0x586C, symBinAddr: 0x100009408, symSize: 0xFC }
  - { offsetInCU: 0x1696D, offset: 0x1696D, size: 0x8, addend: 0x0, symName: __ZNKSt8__detail15_Hash_code_baseINSt7__cxx1112basic_stringIcSt11char_traitsIcESaIcEEESt4pairIKS6_St13unordered_mapIS6_S6_St4hashIS6_ESt8equal_toIS6_ESaIS7_IS8_S6_EEEENS_10_Select1stESB_NS_18_Mod_range_hashingENS_20_Default_ranged_hashELb1EE15_M_bucket_indexEmm, symObjAddr: 0x5840, symBinAddr: 0x1000093DC, symSize: 0x2C }
  - { offsetInCU: 0x169B7, offset: 0x169B7, size: 0x8, addend: 0x0, symName: __ZNKSt15__str_hash_baseIcSaIcENSt7__cxx1112basic_stringIcSt11char_traitsIcES0_EEEclERKS5_, symObjAddr: 0x57F8, symBinAddr: 0x100009394, symSize: 0x48 }
  - { offsetInCU: 0x169F1, offset: 0x169F1, size: 0x8, addend: 0x0, symName: __ZNKSt8__detail15_Hash_code_baseINSt7__cxx1112basic_stringIcSt11char_traitsIcESaIcEEESt4pairIKS6_St13unordered_mapIS6_S6_St4hashIS6_ESt8equal_toIS6_ESaIS7_IS8_S6_EEEENS_10_Select1stESB_NS_18_Mod_range_hashingENS_20_Default_ranged_hashELb1EE7_M_hashEv, symObjAddr: 0x57DC, symBinAddr: 0x100009378, symSize: 0x1C }
  - { offsetInCU: 0x16A47, offset: 0x16A47, size: 0x8, addend: 0x0, symName: __ZNSt8__detail16_Hashtable_allocISaINS_10_Hash_nodeISt4pairIKNSt7__cxx1112basic_stringIcSt11char_traitsIcESaIcEEESt13unordered_mapIS8_S8_St4hashIS8_ESt8equal_toIS8_ESaIS2_IS9_S8_EEEELb1EEEEE21_M_deallocate_bucketsEPPNS_15_Hash_node_baseEm, symObjAddr: 0x5764, symBinAddr: 0x100009300, symSize: 0x78 }
  - { offsetInCU: 0x16B55, offset: 0x16B55, size: 0x8, addend: 0x0, symName: __ZNKSt10_HashtableINSt7__cxx1112basic_stringIcSt11char_traitsIcESaIcEEESt4pairIKS5_St13unordered_mapIS5_S5_St4hashIS5_ESt8equal_toIS5_ESaIS6_IS7_S5_EEEESaISG_ENSt8__detail10_Select1stESC_SA_NSI_18_Mod_range_hashingENSI_20_Default_ranged_hashENSI_20_Prime_rehash_policyENSI_17_Hashtable_traitsILb1ELb0ELb1EEEE21_M_uses_single_bucketEPPNSI_15_Hash_node_baseE, symObjAddr: 0x5728, symBinAddr: 0x1000092C4, symSize: 0x3C }
  - { offsetInCU: 0x16B8F, offset: 0x16B8F, size: 0x8, addend: 0x0, symName: __ZNSt8__detail16_Hashtable_allocISaINS_10_Hash_nodeISt4pairIKNSt7__cxx1112basic_stringIcSt11char_traitsIcESaIcEEESt13unordered_mapIS8_S8_St4hashIS8_ESt8equal_toIS8_ESaIS2_IS9_S8_EEEELb1EEEEE18_M_deallocate_nodeEPSJ_, symObjAddr: 0x56AC, symBinAddr: 0x100009248, symSize: 0x7C }
  - { offsetInCU: 0x16C44, offset: 0x16C44, size: 0x8, addend: 0x0, symName: __ZNSt5dequeINSt7__cxx1112basic_stringIcSt11char_traitsIcESaIcEEESaIS5_EE14_S_buffer_sizeEv, symObjAddr: 0x5694, symBinAddr: 0x100009230, symSize: 0x18 }
  - { offsetInCU: 0x16CB1, offset: 0x16CB1, size: 0x8, addend: 0x0, symName: __ZNKSt11_Deque_baseINSt7__cxx1112basic_stringIcSt11char_traitsIcESaIcEEESaIS5_EE20_M_get_map_allocatorEv, symObjAddr: 0x564C, symBinAddr: 0x1000091E8, symSize: 0x48 }
  - { offsetInCU: 0x16D2B, offset: 0x16D2B, size: 0x8, addend: 0x0, symName: __ZNSt11_Deque_baseINSt7__cxx1112basic_stringIcSt11char_traitsIcESaIcEEESaIS5_EE18_M_deallocate_nodeEPS5_, symObjAddr: 0x55F4, symBinAddr: 0x100009190, symSize: 0x58 }
  - { offsetInCU: 0x16D9B, offset: 0x16D9B, size: 0x8, addend: 0x0, symName: __ZNSt15_Deque_iteratorINSt7__cxx1112basic_stringIcSt11char_traitsIcESaIcEEERS5_PS5_E11_M_set_nodeEPS7_, symObjAddr: 0x5598, symBinAddr: 0x100009134, symSize: 0x5C }
  - { offsetInCU: 0x16DD5, offset: 0x16DD5, size: 0x8, addend: 0x0, symName: __ZNSt11_Deque_baseINSt7__cxx1112basic_stringIcSt11char_traitsIcESaIcEEESaIS5_EE15_M_create_nodesEPPS5_S9_, symObjAddr: 0x550C, symBinAddr: 0x1000090A8, symSize: 0x8C }
  - { offsetInCU: 0x16E30, offset: 0x16E30, size: 0x8, addend: 0x0, symName: __ZNSt11_Deque_baseINSt7__cxx1112basic_stringIcSt11char_traitsIcESaIcEEESaIS5_EE15_M_allocate_mapEm, symObjAddr: 0x548C, symBinAddr: 0x100009028, symSize: 0x80 }
  - { offsetInCU: 0x16F63, offset: 0x16F63, size: 0x8, addend: 0x0, symName: __ZNSt11_Deque_baseINSt7__cxx1112basic_stringIcSt11char_traitsIcESaIcEEESaIS5_EE16_Deque_impl_dataC2Ev, symObjAddr: 0x544C, symBinAddr: 0x100008FE8, symSize: 0x40 }
  - { offsetInCU: 0x16F27, offset: 0x16F27, size: 0x8, addend: 0x0, symName: __ZNKSt10_HashtableINSt7__cxx1112basic_stringIcSt11char_traitsIcESaIcEEESt4pairIKS5_S5_ESaIS8_ENSt8__detail10_Select1stESt8equal_toIS5_ESt4hashIS5_ENSA_18_Mod_range_hashingENSA_20_Default_ranged_hashENSA_20_Prime_rehash_policyENSA_17_Hashtable_traitsILb1ELb0ELb1EEEE15_M_bucket_indexERKNSA_16_Hash_node_valueIS8_Lb1EEE, symObjAddr: 0x541C, symBinAddr: 0x100008FB8, symSize: 0x30 }
  - { offsetInCU: 0x17024, offset: 0x17024, size: 0x8, addend: 0x0, symName: __ZNSt8__detail21_Hashtable_ebo_helperILi0ESaINS_10_Hash_nodeISt4pairIKNSt7__cxx1112basic_stringIcSt11char_traitsIcESaIcEEES8_ELb1EEEELb1EEC2ISC_EEOT_, symObjAddr: 0x53D0, symBinAddr: 0x100008F6C, symSize: 0x4C }
  - { offsetInCU: 0x17025, offset: 0x17025, size: 0x8, addend: 0x0, symName: __ZSt7forwardISaINSt8__detail10_Hash_nodeISt4pairIKNSt7__cxx1112basic_stringIcSt11char_traitsIcESaIcEEES8_ELb1EEEEEOT_RNSt16remove_referenceISD_E4typeE, symObjAddr: 0x53BC, symBinAddr: 0x100008F58, symSize: 0x14 }
  - { offsetInCU: 0x17125, offset: 0x17125, size: 0x8, addend: 0x0, symName: __ZNSt4pairINSt8__detail14_Node_iteratorIS_IKNSt7__cxx1112basic_stringIcSt11char_traitsIcESaIcEEES7_ELb0ELb1EEEbEC1IRSA_bLb1EEEOT_OT0_, symObjAddr: 0x5370, symBinAddr: 0x100008F0C, symSize: 0x4C }
  - { offsetInCU: 0x171B6, offset: 0x171B6, size: 0x8, addend: 0x0, symName: __ZNSt4pairINSt8__detail14_Node_iteratorIS_IKNSt7__cxx1112basic_stringIcSt11char_traitsIcESaIcEEES7_ELb0ELb1EEEbEC1ISA_bLb1EEEOT_OT0_, symObjAddr: 0x5324, symBinAddr: 0x100008EC0, symSize: 0x4C }
  - { offsetInCU: 0x1717F, offset: 0x1717F, size: 0x8, addend: 0x0, symName: __ZNKSt8__detail15_Hashtable_baseINSt7__cxx1112basic_stringIcSt11char_traitsIcESaIcEEESt4pairIKS6_S6_ENS_10_Select1stESt8equal_toIS6_ESt4hashIS6_ENS_18_Mod_range_hashingENS_20_Default_ranged_hashENS_17_Hashtable_traitsILb1ELb0ELb1EEEE13_M_key_equalsERS8_RKNS_16_Hash_node_valueIS9_Lb1EEE, symObjAddr: 0x52B8, symBinAddr: 0x100008E54, symSize: 0x6C }
  - { offsetInCU: 0x1720E, offset: 0x1720E, size: 0x8, addend: 0x0, symName: __ZNSt10_HashtableINSt7__cxx1112basic_stringIcSt11char_traitsIcESaIcEEESt4pairIKS5_S5_ESaIS8_ENSt8__detail10_Select1stESt8equal_toIS5_ESt4hashIS5_ENSA_18_Mod_range_hashingENSA_20_Default_ranged_hashENSA_20_Prime_rehash_policyENSA_17_Hashtable_traitsILb1ELb0ELb1EEEE22__small_size_thresholdEv, symObjAddr: 0x52A4, symBinAddr: 0x100008E40, symSize: 0x14 }
  - { offsetInCU: 0x17229, offset: 0x17229, size: 0x8, addend: 0x0, symName: __ZNKSt10_HashtableINSt7__cxx1112basic_stringIcSt11char_traitsIcESaIcEEESt4pairIKS5_S5_ESaIS8_ENSt8__detail10_Select1stESt8equal_toIS5_ESt4hashIS5_ENSA_18_Mod_range_hashingENSA_20_Default_ranged_hashENSA_20_Prime_rehash_policyENSA_17_Hashtable_traitsILb1ELb0ELb1EEEE4sizeEv, symObjAddr: 0x528C, symBinAddr: 0x100008E28, symSize: 0x18 }
  - { offsetInCU: 0x17253, offset: 0x17253, size: 0x8, addend: 0x0, symName: __ZNKSt8__detail10_Select1stclIRSt4pairIKNSt7__cxx1112basic_stringIcSt11char_traitsIcESaIcEEES8_EEEONS0_10__1st_typeIT_E4typeEOSD_, symObjAddr: 0x526C, symBinAddr: 0x100008E08, symSize: 0x20 }
  - { offsetInCU: 0x1742F, offset: 0x1742F, size: 0x8, addend: 0x0, symName: __ZNSt10_HashtableINSt7__cxx1112basic_stringIcSt11char_traitsIcESaIcEEESt4pairIKS5_S5_ESaIS8_ENSt8__detail10_Select1stESt8equal_toIS5_ESt4hashIS5_ENSA_18_Mod_range_hashingENSA_20_Default_ranged_hashENSA_20_Prime_rehash_policyENSA_17_Hashtable_traitsILb1ELb0ELb1EEEE12_Scoped_nodeC1IJS8_EEEPNSA_16_Hashtable_allocISaINSA_10_Hash_nodeIS8_Lb1EEEEEEDpOT_, symObjAddr: 0x5214, symBinAddr: 0x100008DB0, symSize: 0x58 }
  - { offsetInCU: 0x1731F, offset: 0x1731F, size: 0x8, addend: 0x0, symName: __ZNSt8__detail16_Hashtable_allocISaINS_10_Hash_nodeISt4pairIKNSt7__cxx1112basic_stringIcSt11char_traitsIcESaIcEEES8_ELb1EEEEE21_M_deallocate_bucketsEPPNS_15_Hash_node_baseEm, symObjAddr: 0x519C, symBinAddr: 0x100008D38, symSize: 0x78 }
  - { offsetInCU: 0x1742D, offset: 0x1742D, size: 0x8, addend: 0x0, symName: __ZNKSt10_HashtableINSt7__cxx1112basic_stringIcSt11char_traitsIcESaIcEEESt4pairIKS5_S5_ESaIS8_ENSt8__detail10_Select1stESt8equal_toIS5_ESt4hashIS5_ENSA_18_Mod_range_hashingENSA_20_Default_ranged_hashENSA_20_Prime_rehash_policyENSA_17_Hashtable_traitsILb1ELb0ELb1EEEE21_M_uses_single_bucketEPPNSA_15_Hash_node_baseE, symObjAddr: 0x5160, symBinAddr: 0x100008CFC, symSize: 0x3C }
  - { offsetInCU: 0x17467, offset: 0x17467, size: 0x8, addend: 0x0, symName: __ZNSt8__detail16_Hashtable_allocISaINS_10_Hash_nodeISt4pairIKNSt7__cxx1112basic_stringIcSt11char_traitsIcESaIcEEES8_ELb1EEEEE18_M_deallocate_nodeEPSB_, symObjAddr: 0x50E4, symBinAddr: 0x100008C80, symSize: 0x7C }
  - { offsetInCU: 0x1751F, offset: 0x1751F, size: 0x8, addend: 0x0, symName: __ZN9__gnu_cxx17__normal_iteratorIPKcNSt7__cxx1112basic_stringIcSt11char_traitsIcESaIcEEEEppEv, symObjAddr: 0x50BC, symBinAddr: 0x100008C58, symSize: 0x28 }
  - { offsetInCU: 0x17549, offset: 0x17549, size: 0x8, addend: 0x0, symName: __ZN9__gnu_cxx5__ops10_Iter_predIZ6lstripRKNSt7__cxx1112basic_stringIcSt11char_traitsIcESaIcEEEEUlhE_EclINS_17__normal_iteratorIPKcS7_EEEEbT_, symObjAddr: 0x507C, symBinAddr: 0x100008C18, symSize: 0x40 }
  - { offsetInCU: 0x1758C, offset: 0x1758C, size: 0x8, addend: 0x0, symName: __ZNK9__gnu_cxx17__normal_iteratorIPKcNSt7__cxx1112basic_stringIcSt11char_traitsIcESaIcEEEE4baseEv, symObjAddr: 0x5068, symBinAddr: 0x100008C04, symSize: 0x14 }
  - { offsetInCU: 0x175E6, offset: 0x175E6, size: 0x8, addend: 0x0, symName: __ZNSt16reverse_iteratorIN9__gnu_cxx17__normal_iteratorIPKcNSt7__cxx1112basic_stringIcSt11char_traitsIcESaIcEEEEEEppEv, symObjAddr: 0x5048, symBinAddr: 0x100008BE4, symSize: 0x20 }
  - { offsetInCU: 0x17610, offset: 0x17610, size: 0x8, addend: 0x0, symName: __ZN9__gnu_cxx5__ops10_Iter_predIZ6rstripRKNSt7__cxx1112basic_stringIcSt11char_traitsIcESaIcEEEEUlhE_EclISt16reverse_iteratorINS_17__normal_iteratorIPKcS7_EEEEEbT_, symObjAddr: 0x5008, symBinAddr: 0x100008BA4, symSize: 0x40 }
  - { offsetInCU: 0x17654, offset: 0x17654, size: 0x8, addend: 0x0, symName: __ZNKSt16reverse_iteratorIN9__gnu_cxx17__normal_iteratorIPKcNSt7__cxx1112basic_stringIcSt11char_traitsIcESaIcEEEEEEdeEv, symObjAddr: 0x4FDC, symBinAddr: 0x100008B78, symSize: 0x2C }
  - { offsetInCU: 0x17691, offset: 0x17691, size: 0x8, addend: 0x0, symName: __ZN9__gnu_cxxmiIPKcNSt7__cxx1112basic_stringIcSt11char_traitsIcESaIcEEEEENS_17__normal_iteratorIT_T0_E15difference_typeERKSC_SF_, symObjAddr: 0x4FA0, symBinAddr: 0x100008B3C, symSize: 0x3C }
  - { offsetInCU: 0x176DC, offset: 0x176DC, size: 0x8, addend: 0x0, symName: __ZSt12__relocate_aIPNSt7__cxx1112basic_stringIcSt11char_traitsIcESaIcEEES6_SaIS5_EET0_T_S9_S8_RT1_, symObjAddr: 0x4F44, symBinAddr: 0x100008AE0, symSize: 0x5C }
  - { offsetInCU: 0x17778, offset: 0x17778, size: 0x8, addend: 0x0, symName: __ZNK9__gnu_cxx17__normal_iteratorIPNSt7__cxx1112basic_stringIcSt11char_traitsIcESaIcEEESt6vectorIS6_SaIS6_EEE4baseEv, symObjAddr: 0x4F30, symBinAddr: 0x100008ACC, symSize: 0x14 }
  - { offsetInCU: 0x1783B, offset: 0x1783B, size: 0x8, addend: 0x0, symName: __ZN9__gnu_cxx17__normal_iteratorIPNSt7__cxx1112basic_stringIcSt11char_traitsIcESaIcEEESt6vectorIS6_SaIS6_EEEC1ERKS7_, symObjAddr: 0x4F08, symBinAddr: 0x100008AA4, symSize: 0x28 }
  - { offsetInCU: 0x177F9, offset: 0x177F9, size: 0x8, addend: 0x0, symName: __ZNKSt6vectorINSt7__cxx1112basic_stringIcSt11char_traitsIcESaIcEEESaIS5_EE8max_sizeEv, symObjAddr: 0x4EE8, symBinAddr: 0x100008A84, symSize: 0x20 }
  - { offsetInCU: 0x1781F, offset: 0x1781F, size: 0x8, addend: 0x0, symName: __ZNSt12_Destroy_auxILb0EE9__destroyIPNSt7__cxx1112basic_stringIcSt11char_traitsIcESaIcEEEEEvT_S9_, symObjAddr: 0x4E9C, symBinAddr: 0x100008A38, symSize: 0x4C }
  - { offsetInCU: 0x17865, offset: 0x17865, size: 0x8, addend: 0x0, symName: __ZNSt15__new_allocatorINSt7__cxx1112basic_stringIcSt11char_traitsIcESaIcEEEE10deallocateEPS5_m, symObjAddr: 0x4E6C, symBinAddr: 0x100008A08, symSize: 0x30 }
  - { offsetInCU: 0x178E5, offset: 0x178E5, size: 0x8, addend: 0x0, symName: __ZNSt10_HashtableINSt7__cxx1112basic_stringIcSt11char_traitsIcESaIcEEESt4pairIKS5_S5_ESaIS8_ENSt8__detail10_Select1stESt8equal_toIS5_ESt4hashIS5_ENSA_18_Mod_range_hashingENSA_20_Default_ranged_hashENSA_20_Prime_rehash_policyENSA_17_Hashtable_traitsILb1ELb0ELb1EEEE9_M_assignIRKSL_NSA_10_AllocNodeISaINSA_10_Hash_nodeIS8_Lb1EEEEEEEEvOT_RKT0_, symObjAddr: 0x4C6C, symBinAddr: 0x100008808, symSize: 0x200 }
  - { offsetInCU: 0x17AFE, offset: 0x17AFE, size: 0x8, addend: 0x0, symName: __ZNSt8__detail10_AllocNodeISaINS_10_Hash_nodeISt4pairIKNSt7__cxx1112basic_stringIcSt11char_traitsIcESaIcEEES8_ELb1EEEEEC1ERNS_16_Hashtable_allocISC_EE, symObjAddr: 0x4C48, symBinAddr: 0x1000087E4, symSize: 0x24 }
  - { offsetInCU: 0x17AAF, offset: 0x17AAF, size: 0x8, addend: 0x0, symName: __ZNKSt8__detail16_Hashtable_allocISaINS_10_Hash_nodeISt4pairIKNSt7__cxx1112basic_stringIcSt11char_traitsIcESaIcEEES8_ELb1EEEEE17_M_node_allocatorEv, symObjAddr: 0x4C2C, symBinAddr: 0x1000087C8, symSize: 0x1C }
  - { offsetInCU: 0x17AEF, offset: 0x17AEF, size: 0x8, addend: 0x0, symName: __ZNKSt8__detail10_Hash_nodeISt4pairIKNSt7__cxx1112basic_stringIcSt11char_traitsIcESaIcEEESt13unordered_mapIS7_S7_St4hashIS7_ESt8equal_toIS7_ESaIS1_IS8_S7_EEEELb1EE7_M_nextEv, symObjAddr: 0x4C14, symBinAddr: 0x1000087B0, symSize: 0x18 }
  - { offsetInCU: 0x17C05, offset: 0x17C05, size: 0x8, addend: 0x0, symName: __ZNSt8__detail14_Node_iteratorISt4pairIKNSt7__cxx1112basic_stringIcSt11char_traitsIcESaIcEEESt13unordered_mapIS7_S7_St4hashIS7_ESt8equal_toIS7_ESaIS1_IS8_S7_EEEELb0ELb1EEC1EPNS_10_Hash_nodeISH_Lb1EEE, symObjAddr: 0x4BEC, symBinAddr: 0x100008788, symSize: 0x28 }
  - { offsetInCU: 0x17D4C, offset: 0x17D4C, size: 0x8, addend: 0x0, symName: __ZNSt10_HashtableINSt7__cxx1112basic_stringIcSt11char_traitsIcESaIcEEESt4pairIKS5_S5_ESaIS8_ENSt8__detail10_Select1stESt8equal_toIS5_ESt4hashIS5_ENSA_18_Mod_range_hashingENSA_20_Default_ranged_hashENSA_20_Prime_rehash_policyENSA_17_Hashtable_traitsILb1ELb0ELb1EEEE12_Scoped_nodeC1IJRKSt21piecewise_construct_tSt5tupleIJRS7_EESR_IJEEEEEPNSA_16_Hashtable_allocISaINSA_10_Hash_nodeIS8_Lb1EEEEEEDpOT_, symObjAddr: 0x4B64, symBinAddr: 0x100008700, symSize: 0x88 }
  - { offsetInCU: 0x17C3F, offset: 0x17C3F, size: 0x8, addend: 0x0, symName: __ZNKSt8__detail10_Hash_nodeISt4pairIKNSt7__cxx1112basic_stringIcSt11char_traitsIcESaIcEEES7_ELb1EE7_M_nextEv, symObjAddr: 0x4B4C, symBinAddr: 0x1000086E8, symSize: 0x18 }
  - { offsetInCU: 0x17D14, offset: 0x17D14, size: 0x8, addend: 0x0, symName: __ZNSt8__detail14_Node_iteratorISt4pairIKNSt7__cxx1112basic_stringIcSt11char_traitsIcESaIcEEES7_ELb0ELb1EEC1EPNS_10_Hash_nodeIS9_Lb1EEE, symObjAddr: 0x4B24, symBinAddr: 0x1000086C0, symSize: 0x28 }
  - { offsetInCU: 0x17CC0, offset: 0x17CC0, size: 0x8, addend: 0x0, symName: __ZNSt5dequeINSt7__cxx1112basic_stringIcSt11char_traitsIcESaIcEEESaIS5_EE16_M_push_back_auxIJRKS5_EEEvDpOT_, symObjAddr: 0x499C, symBinAddr: 0x100008538, symSize: 0x188 }
  - { offsetInCU: 0x17D69, offset: 0x17D69, size: 0x8, addend: 0x0, symName: __ZNKSt8__detail14_Node_iteratorISt4pairIKNSt7__cxx1112basic_stringIcSt11char_traitsIcESaIcEEES7_ELb0ELb1EEptEv, symObjAddr: 0x496C, symBinAddr: 0x100008508, symSize: 0x30 }
  - { offsetInCU: 0x17DB7, offset: 0x17DB7, size: 0x8, addend: 0x0, symName: __ZNSt10_HashtableINSt7__cxx1112basic_stringIcSt11char_traitsIcESaIcEEESt4pairIKS5_S5_ESaIS8_ENSt8__detail10_Select1stESt8equal_toIS5_ESt4hashIS5_ENSA_18_Mod_range_hashingENSA_20_Default_ranged_hashENSA_20_Prime_rehash_policyENSA_17_Hashtable_traitsILb1ELb0ELb1EEEE21_M_insert_unique_nodeEmmPNSA_10_Hash_nodeIS8_Lb1EEEm, symObjAddr: 0x485C, symBinAddr: 0x1000083F8, symSize: 0x110 }
  - { offsetInCU: 0x17F81, offset: 0x17F81, size: 0x8, addend: 0x0, symName: __ZNSt10_HashtableINSt7__cxx1112basic_stringIcSt11char_traitsIcESaIcEEESt4pairIKS5_S5_ESaIS8_ENSt8__detail10_Select1stESt8equal_toIS5_ESt4hashIS5_ENSA_18_Mod_range_hashingENSA_20_Default_ranged_hashENSA_20_Prime_rehash_policyENSA_17_Hashtable_traitsILb1ELb0ELb1EEEE12_Scoped_nodeD1Ev, symObjAddr: 0x4818, symBinAddr: 0x1000083B4, symSize: 0x44 }
  - { offsetInCU: 0x1806C, offset: 0x1806C, size: 0x8, addend: 0x0, symName: __ZNSt10_HashtableINSt7__cxx1112basic_stringIcSt11char_traitsIcESaIcEEESt4pairIKS5_S5_ESaIS8_ENSt8__detail10_Select1stESt8equal_toIS5_ESt4hashIS5_ENSA_18_Mod_range_hashingENSA_20_Default_ranged_hashENSA_20_Prime_rehash_policyENSA_17_Hashtable_traitsILb1ELb0ELb1EEEE12_Scoped_nodeC1IJRKSt21piecewise_construct_tSt5tupleIJOS5_EESR_IJEEEEEPNSA_16_Hashtable_allocISaINSA_10_Hash_nodeIS8_Lb1EEEEEEDpOT_, symObjAddr: 0x4790, symBinAddr: 0x10000832C, symSize: 0x88 }
  - { offsetInCU: 0x17F45, offset: 0x17F45, size: 0x8, addend: 0x0, symName: __ZSt16forward_as_tupleIJNSt7__cxx1112basic_stringIcSt11char_traitsIcESaIcEEEEESt5tupleIJDpOT_EES9_, symObjAddr: 0x4758, symBinAddr: 0x1000082F4, symSize: 0x38 }
  - { offsetInCU: 0x17F7D, offset: 0x17F7D, size: 0x8, addend: 0x0, symName: __ZNKSt10_HashtableINSt7__cxx1112basic_stringIcSt11char_traitsIcESaIcEEESt4pairIKS5_S5_ESaIS8_ENSt8__detail10_Select1stESt8equal_toIS5_ESt4hashIS5_ENSA_18_Mod_range_hashingENSA_20_Default_ranged_hashENSA_20_Prime_rehash_policyENSA_17_Hashtable_traitsILb1ELb0ELb1EEEE12_M_find_nodeEmRS7_m, symObjAddr: 0x4704, symBinAddr: 0x1000082A0, symSize: 0x54 }
  - { offsetInCU: 0x17FE8, offset: 0x17FE8, size: 0x8, addend: 0x0, symName: __ZNKSt10_HashtableINSt7__cxx1112basic_stringIcSt11char_traitsIcESaIcEEESt4pairIKS5_S5_ESaIS8_ENSt8__detail10_Select1stESt8equal_toIS5_ESt4hashIS5_ENSA_18_Mod_range_hashingENSA_20_Default_ranged_hashENSA_20_Prime_rehash_policyENSA_17_Hashtable_traitsILb1ELb0ELb1EEEE15_M_bucket_indexEm, symObjAddr: 0x46D4, symBinAddr: 0x100008270, symSize: 0x30 }
  - { offsetInCU: 0x18022, offset: 0x18022, size: 0x8, addend: 0x0, symName: __ZNKSt8__detail15_Hash_code_baseINSt7__cxx1112basic_stringIcSt11char_traitsIcESaIcEEESt4pairIKS6_S6_ENS_10_Select1stESt4hashIS6_ENS_18_Mod_range_hashingENS_20_Default_ranged_hashELb1EE12_M_hash_codeERS8_, symObjAddr: 0x46AC, symBinAddr: 0x100008248, symSize: 0x28 }
  - { offsetInCU: 0x1805C, offset: 0x1805C, size: 0x8, addend: 0x0, symName: __ZNKSt8__detail14_Node_iteratorISt4pairIKNSt7__cxx1112basic_stringIcSt11char_traitsIcESaIcEEESt13unordered_mapIS7_S7_St4hashIS7_ESt8equal_toIS7_ESaIS1_IS8_S7_EEEELb0ELb1EEptEv, symObjAddr: 0x467C, symBinAddr: 0x100008218, symSize: 0x30 }
  - { offsetInCU: 0x180AA, offset: 0x180AA, size: 0x8, addend: 0x0, symName: __ZNSt10_HashtableINSt7__cxx1112basic_stringIcSt11char_traitsIcESaIcEEESt4pairIKS5_St13unordered_mapIS5_S5_St4hashIS5_ESt8equal_toIS5_ESaIS6_IS7_S5_EEEESaISG_ENSt8__detail10_Select1stESC_SA_NSI_18_Mod_range_hashingENSI_20_Default_ranged_hashENSI_20_Prime_rehash_policyENSI_17_Hashtable_traitsILb1ELb0ELb1EEEE21_M_insert_unique_nodeEmmPNSI_10_Hash_nodeISG_Lb1EEEm, symObjAddr: 0x456C, symBinAddr: 0x100008108, symSize: 0x110 }
  - { offsetInCU: 0x1829F, offset: 0x1829F, size: 0x8, addend: 0x0, symName: __ZNSt10_HashtableINSt7__cxx1112basic_stringIcSt11char_traitsIcESaIcEEESt4pairIKS5_St13unordered_mapIS5_S5_St4hashIS5_ESt8equal_toIS5_ESaIS6_IS7_S5_EEEESaISG_ENSt8__detail10_Select1stESC_SA_NSI_18_Mod_range_hashingENSI_20_Default_ranged_hashENSI_20_Prime_rehash_policyENSI_17_Hashtable_traitsILb1ELb0ELb1EEEE12_Scoped_nodeD1Ev, symObjAddr: 0x4528, symBinAddr: 0x1000080C4, symSize: 0x44 }
  - { offsetInCU: 0x1838A, offset: 0x1838A, size: 0x8, addend: 0x0, symName: __ZNSt10_HashtableINSt7__cxx1112basic_stringIcSt11char_traitsIcESaIcEEESt4pairIKS5_St13unordered_mapIS5_S5_St4hashIS5_ESt8equal_toIS5_ESaIS6_IS7_S5_EEEESaISG_ENSt8__detail10_Select1stESC_SA_NSI_18_Mod_range_hashingENSI_20_Default_ranged_hashENSI_20_Prime_rehash_policyENSI_17_Hashtable_traitsILb1ELb0ELb1EEEE12_Scoped_nodeC1IJRKSt21piecewise_construct_tSt5tupleIJRS7_EESV_IJEEEEEPNSI_16_Hashtable_allocISaINSI_10_Hash_nodeISG_Lb1EEEEEEDpOT_, symObjAddr: 0x44A0, symBinAddr: 0x10000803C, symSize: 0x88 }
  - { offsetInCU: 0x182C0, offset: 0x182C0, size: 0x8, addend: 0x0, symName: __ZNSt5tupleIJRKNSt7__cxx1112basic_stringIcSt11char_traitsIcESaIcEEEEEC1ILb1ELb1EEES7_, symObjAddr: 0x4478, symBinAddr: 0x100008014, symSize: 0x28 }
  - { offsetInCU: 0x182A7, offset: 0x182A7, size: 0x8, addend: 0x0, symName: __ZNKSt10_HashtableINSt7__cxx1112basic_stringIcSt11char_traitsIcESaIcEEESt4pairIKS5_St13unordered_mapIS5_S5_St4hashIS5_ESt8equal_toIS5_ESaIS6_IS7_S5_EEEESaISG_ENSt8__detail10_Select1stESC_SA_NSI_18_Mod_range_hashingENSI_20_Default_ranged_hashENSI_20_Prime_rehash_policyENSI_17_Hashtable_traitsILb1ELb0ELb1EEEE12_M_find_nodeEmRS7_m, symObjAddr: 0x4424, symBinAddr: 0x100007FC0, symSize: 0x54 }
  - { offsetInCU: 0x18312, offset: 0x18312, size: 0x8, addend: 0x0, symName: __ZNKSt10_HashtableINSt7__cxx1112basic_stringIcSt11char_traitsIcESaIcEEESt4pairIKS5_St13unordered_mapIS5_S5_St4hashIS5_ESt8equal_toIS5_ESaIS6_IS7_S5_EEEESaISG_ENSt8__detail10_Select1stESC_SA_NSI_18_Mod_range_hashingENSI_20_Default_ranged_hashENSI_20_Prime_rehash_policyENSI_17_Hashtable_traitsILb1ELb0ELb1EEEE15_M_bucket_indexEm, symObjAddr: 0x43F4, symBinAddr: 0x100007F90, symSize: 0x30 }
  - { offsetInCU: 0x1834C, offset: 0x1834C, size: 0x8, addend: 0x0, symName: __ZNKSt8__detail15_Hash_code_baseINSt7__cxx1112basic_stringIcSt11char_traitsIcESaIcEEESt4pairIKS6_St13unordered_mapIS6_S6_St4hashIS6_ESt8equal_toIS6_ESaIS7_IS8_S6_EEEENS_10_Select1stESB_NS_18_Mod_range_hashingENS_20_Default_ranged_hashELb1EE12_M_hash_codeERS8_, symObjAddr: 0x43CC, symBinAddr: 0x100007F68, symSize: 0x28 }
  - { offsetInCU: 0x18386, offset: 0x18386, size: 0x8, addend: 0x0, symName: __ZNKSt15_Deque_iteratorINSt7__cxx1112basic_stringIcSt11char_traitsIcESaIcEEERS5_PS5_EdeEv, symObjAddr: 0x43B4, symBinAddr: 0x100007F50, symSize: 0x18 }
  - { offsetInCU: 0x183B0, offset: 0x183B0, size: 0x8, addend: 0x0, symName: __ZNSt15_Deque_iteratorINSt7__cxx1112basic_stringIcSt11char_traitsIcESaIcEEERS5_PS5_EmmEv, symObjAddr: 0x4348, symBinAddr: 0x100007EE4, symSize: 0x6C }
  - { offsetInCU: 0x183D6, offset: 0x183D6, size: 0x8, addend: 0x0, symName: __ZSteqRKSt15_Deque_iteratorINSt7__cxx1112basic_stringIcSt11char_traitsIcESaIcEEERS5_PS5_ESA_, symObjAddr: 0x4318, symBinAddr: 0x100007EB4, symSize: 0x30 }
  - { offsetInCU: 0x18413, offset: 0x18413, size: 0x8, addend: 0x0, symName: __ZNSt5dequeINSt7__cxx1112basic_stringIcSt11char_traitsIcESaIcEEESaIS5_EE15_M_pop_back_auxEv, symObjAddr: 0x4278, symBinAddr: 0x100007E14, symSize: 0xA0 }
  - { offsetInCU: 0x184C4, offset: 0x184C4, size: 0x8, addend: 0x0, symName: __ZNSt10_HashtableINSt7__cxx1112basic_stringIcSt11char_traitsIcESaIcEEESt4pairIKS5_St13unordered_mapIS5_S5_St4hashIS5_ESt8equal_toIS5_ESaIS6_IS7_S5_EEEESaISG_ENSt8__detail10_Select1stESC_SA_NSI_18_Mod_range_hashingENSI_20_Default_ranged_hashENSI_20_Prime_rehash_policyENSI_17_Hashtable_traitsILb1ELb0ELb1EEEE21_M_deallocate_bucketsEPPNSI_15_Hash_node_baseEm, symObjAddr: 0x422C, symBinAddr: 0x100007DC8, symSize: 0x4C }
  - { offsetInCU: 0x1850E, offset: 0x1850E, size: 0x8, addend: 0x0, symName: __ZNSt8__detail16_Hashtable_allocISaINS_10_Hash_nodeISt4pairIKNSt7__cxx1112basic_stringIcSt11char_traitsIcESaIcEEESt13unordered_mapIS8_S8_St4hashIS8_ESt8equal_toIS8_ESaIS2_IS9_S8_EEEELb1EEEEE19_M_deallocate_nodesEPSJ_, symObjAddr: 0x41DC, symBinAddr: 0x100007D78, symSize: 0x50 }
  - { offsetInCU: 0x1856C, offset: 0x1856C, size: 0x8, addend: 0x0, symName: __ZNKSt10_HashtableINSt7__cxx1112basic_stringIcSt11char_traitsIcESaIcEEESt4pairIKS5_St13unordered_mapIS5_S5_St4hashIS5_ESt8equal_toIS5_ESaIS6_IS7_S5_EEEESaISG_ENSt8__detail10_Select1stESC_SA_NSI_18_Mod_range_hashingENSI_20_Default_ranged_hashENSI_20_Prime_rehash_policyENSI_17_Hashtable_traitsILb1ELb0ELb1EEEE8_M_beginEv, symObjAddr: 0x41C4, symBinAddr: 0x100007D60, symSize: 0x18 }
  - { offsetInCU: 0x185AC, offset: 0x185AC, size: 0x8, addend: 0x0, symName: __ZNSt5dequeINSt7__cxx1112basic_stringIcSt11char_traitsIcESaIcEEESaIS5_EE19_M_destroy_data_auxESt15_Deque_iteratorIS5_RS5_PS5_ESB_, symObjAddr: 0x4074, symBinAddr: 0x100007C10, symSize: 0x150 }
  - { offsetInCU: 0x1877C, offset: 0x1877C, size: 0x8, addend: 0x0, symName: __ZNSt15_Deque_iteratorINSt7__cxx1112basic_stringIcSt11char_traitsIcESaIcEEERS5_PS5_EC1ERKS8_, symObjAddr: 0x401C, symBinAddr: 0x100007BB8, symSize: 0x58 }
  - { offsetInCU: 0x18752, offset: 0x18752, size: 0x8, addend: 0x0, symName: __ZNSt11_Deque_baseINSt7__cxx1112basic_stringIcSt11char_traitsIcESaIcEEESaIS5_EE17_M_deallocate_mapEPPS5_m, symObjAddr: 0x3FBC, symBinAddr: 0x100007B58, symSize: 0x60 }
  - { offsetInCU: 0x18801, offset: 0x18801, size: 0x8, addend: 0x0, symName: __ZNSt11_Deque_baseINSt7__cxx1112basic_stringIcSt11char_traitsIcESaIcEEESaIS5_EE16_M_destroy_nodesEPPS5_S9_, symObjAddr: 0x3F5C, symBinAddr: 0x100007AF8, symSize: 0x60 }
  - { offsetInCU: 0x1886F, offset: 0x1886F, size: 0x8, addend: 0x0, symName: __ZNSt11_Deque_baseINSt7__cxx1112basic_stringIcSt11char_traitsIcESaIcEEESaIS5_EE17_M_initialize_mapEm, symObjAddr: 0x3DD0, symBinAddr: 0x10000796C, symSize: 0x18C }
  - { offsetInCU: 0x18953, offset: 0x18953, size: 0x8, addend: 0x0, symName: __ZNSt11_Deque_baseINSt7__cxx1112basic_stringIcSt11char_traitsIcESaIcEEESaIS5_EE11_Deque_implC1Ev, symObjAddr: 0x3D98, symBinAddr: 0x100007934, symSize: 0x38 }
  - { offsetInCU: 0x18963, offset: 0x18963, size: 0x8, addend: 0x0, symName: __ZNSt10_HashtableINSt7__cxx1112basic_stringIcSt11char_traitsIcESaIcEEESt4pairIKS5_S5_ESaIS8_ENSt8__detail10_Select1stESt8equal_toIS5_ESt4hashIS5_ENSA_18_Mod_range_hashingENSA_20_Default_ranged_hashENSA_20_Prime_rehash_policyENSA_17_Hashtable_traitsILb1ELb0ELb1EEEE8_M_resetEv, symObjAddr: 0x3D40, symBinAddr: 0x1000078DC, symSize: 0x58 }
  - { offsetInCU: 0x1898D, offset: 0x1898D, size: 0x8, addend: 0x0, symName: __ZNSt10_HashtableINSt7__cxx1112basic_stringIcSt11char_traitsIcESaIcEEESt4pairIKS5_S5_ESaIS8_ENSt8__detail10_Select1stESt8equal_toIS5_ESt4hashIS5_ENSA_18_Mod_range_hashingENSA_20_Default_ranged_hashENSA_20_Prime_rehash_policyENSA_17_Hashtable_traitsILb1ELb0ELb1EEEE16_M_update_bbeginEv, symObjAddr: 0x3CD8, symBinAddr: 0x100007874, symSize: 0x68 }
  - { offsetInCU: 0x189DB, offset: 0x189DB, size: 0x8, addend: 0x0, symName: __ZNKSt10_HashtableINSt7__cxx1112basic_stringIcSt11char_traitsIcESaIcEEESt4pairIKS5_S5_ESaIS8_ENSt8__detail10_Select1stESt8equal_toIS5_ESt4hashIS5_ENSA_18_Mod_range_hashingENSA_20_Default_ranged_hashENSA_20_Prime_rehash_policyENSA_17_Hashtable_traitsILb1ELb0ELb1EEEE21_M_uses_single_bucketEv, symObjAddr: 0x3CB0, symBinAddr: 0x10000784C, symSize: 0x28 }
  - { offsetInCU: 0x18ABB, offset: 0x18ABB, size: 0x8, addend: 0x0, symName: __ZNSt8__detail16_Hashtable_allocISaINS_10_Hash_nodeISt4pairIKNSt7__cxx1112basic_stringIcSt11char_traitsIcESaIcEEES8_ELb1EEEEEC2ISC_EEOT_, symObjAddr: 0x3C80, symBinAddr: 0x10000781C, symSize: 0x30 }
  - { offsetInCU: 0x18A6E, offset: 0x18A6E, size: 0x8, addend: 0x0, symName: __ZNSt8__detail21_Hashtable_ebo_helperILi0ESaINS_10_Hash_nodeISt4pairIKNSt7__cxx1112basic_stringIcSt11char_traitsIcESaIcEEES8_ELb1EEEELb1EE6_M_getEv, symObjAddr: 0x3C6C, symBinAddr: 0x100007808, symSize: 0x14 }
  - { offsetInCU: 0x18A98, offset: 0x18A98, size: 0x8, addend: 0x0, symName: __ZNSt10_HashtableINSt7__cxx1112basic_stringIcSt11char_traitsIcESaIcEEESt4pairIKS5_S5_ESaIS8_ENSt8__detail10_Select1stESt8equal_toIS5_ESt4hashIS5_ENSA_18_Mod_range_hashingENSA_20_Default_ranged_hashENSA_20_Prime_rehash_policyENSA_17_Hashtable_traitsILb1ELb0ELb1EEEE10_M_emplaceIJS8_EEES6_INSA_14_Node_iteratorIS8_Lb0ELb1EEEbESt17integral_constantIbLb1EEDpOT_, symObjAddr: 0x3A54, symBinAddr: 0x1000075F0, symSize: 0x218 }
  - { offsetInCU: 0x18BE3, offset: 0x18BE3, size: 0x8, addend: 0x0, symName: __ZSt7forwardISt4pairIKNSt7__cxx1112basic_stringIcSt11char_traitsIcESaIcEEES6_EEOT_RNSt16remove_referenceIS9_E4typeE, symObjAddr: 0x3A40, symBinAddr: 0x1000075DC, symSize: 0x14 }
  - { offsetInCU: 0x18C19, offset: 0x18C19, size: 0x8, addend: 0x0, symName: __ZNSt8__detail12_Insert_baseINSt7__cxx1112basic_stringIcSt11char_traitsIcESaIcEEESt4pairIKS6_S6_ESaIS9_ENS_10_Select1stESt8equal_toIS6_ESt4hashIS6_ENS_18_Mod_range_hashingENS_20_Default_ranged_hashENS_20_Prime_rehash_policyENS_17_Hashtable_traitsILb1ELb0ELb1EEEE20_M_conjure_hashtableEv, symObjAddr: 0x3A2C, symBinAddr: 0x1000075C8, symSize: 0x14 }
  - { offsetInCU: 0x18C43, offset: 0x18C43, size: 0x8, addend: 0x0, symName: __ZNSt10_HashtableINSt7__cxx1112basic_stringIcSt11char_traitsIcESaIcEEESt4pairIKS5_S5_ESaIS8_ENSt8__detail10_Select1stESt8equal_toIS5_ESt4hashIS5_ENSA_18_Mod_range_hashingENSA_20_Default_ranged_hashENSA_20_Prime_rehash_policyENSA_17_Hashtable_traitsILb1ELb0ELb1EEEE21_M_deallocate_bucketsEPPNSA_15_Hash_node_baseEm, symObjAddr: 0x39E0, symBinAddr: 0x10000757C, symSize: 0x4C }
  - { offsetInCU: 0x18C8D, offset: 0x18C8D, size: 0x8, addend: 0x0, symName: __ZNSt8__detail16_Hashtable_allocISaINS_10_Hash_nodeISt4pairIKNSt7__cxx1112basic_stringIcSt11char_traitsIcESaIcEEES8_ELb1EEEEE19_M_deallocate_nodesEPSB_, symObjAddr: 0x3990, symBinAddr: 0x10000752C, symSize: 0x50 }
  - { offsetInCU: 0x18CEB, offset: 0x18CEB, size: 0x8, addend: 0x0, symName: __ZNKSt10_HashtableINSt7__cxx1112basic_stringIcSt11char_traitsIcESaIcEEESt4pairIKS5_S5_ESaIS8_ENSt8__detail10_Select1stESt8equal_toIS5_ESt4hashIS5_ENSA_18_Mod_range_hashingENSA_20_Default_ranged_hashENSA_20_Prime_rehash_policyENSA_17_Hashtable_traitsILb1ELb0ELb1EEEE8_M_beginEv, symObjAddr: 0x3978, symBinAddr: 0x100007514, symSize: 0x18 }
  - { offsetInCU: 0x18D27, offset: 0x18D27, size: 0x8, addend: 0x0, symName: __ZSt9__find_ifIN9__gnu_cxx17__normal_iteratorIPKcNSt7__cxx1112basic_stringIcSt11char_traitsIcESaIcEEEEENS0_5__ops10_Iter_predIZ6lstripRKS9_EUlhE_EEET_SH_SH_T0_St26random_access_iterator_tag, symObjAddr: 0x37DC, symBinAddr: 0x100007378, symSize: 0x19C }
  - { offsetInCU: 0x18DC5, offset: 0x18DC5, size: 0x8, addend: 0x0, symName: __ZN9__gnu_cxx5__ops10_Iter_predIZ6lstripRKNSt7__cxx1112basic_stringIcSt11char_traitsIcESaIcEEEEUlhE_EC1ESA_, symObjAddr: 0x37B8, symBinAddr: 0x100007354, symSize: 0x24 }
  - { offsetInCU: 0x18DF5, offset: 0x18DF5, size: 0x8, addend: 0x0, symName: __ZSt4moveIRZ6lstripRKNSt7__cxx1112basic_stringIcSt11char_traitsIcESaIcEEEEUlhE_EONSt16remove_referenceIT_E4typeEOSB_, symObjAddr: 0x37A4, symBinAddr: 0x100007340, symSize: 0x14 }
  - { offsetInCU: 0x18E52, offset: 0x18E52, size: 0x8, addend: 0x0, symName: __ZSt9__find_ifISt16reverse_iteratorIN9__gnu_cxx17__normal_iteratorIPKcNSt7__cxx1112basic_stringIcSt11char_traitsIcESaIcEEEEEENS1_5__ops10_Iter_predIZ6rstripRKSA_EUlhE_EEET_SJ_SJ_T0_St26random_access_iterator_tag, symObjAddr: 0x3564, symBinAddr: 0x100007100, symSize: 0x240 }
  - { offsetInCU: 0x18ECD, offset: 0x18ECD, size: 0x8, addend: 0x0, symName: __ZStmiIN9__gnu_cxx17__normal_iteratorIPKcNSt7__cxx1112basic_stringIcSt11char_traitsIcESaIcEEEEESA_EDTmicldtfp0_4baseEcldtfp_4baseEERKSt16reverse_iteratorIT_ERKSC_IT0_E, symObjAddr: 0x3528, symBinAddr: 0x1000070C4, symSize: 0x3C }
  - { offsetInCU: 0x18F57, offset: 0x18F57, size: 0x8, addend: 0x0, symName: __ZN9__gnu_cxx5__ops10_Iter_predIZ6rstripRKNSt7__cxx1112basic_stringIcSt11char_traitsIcESaIcEEEEUlhE_EC1ESA_, symObjAddr: 0x3504, symBinAddr: 0x1000070A0, symSize: 0x24 }
  - { offsetInCU: 0x18F87, offset: 0x18F87, size: 0x8, addend: 0x0, symName: __ZSt4moveIRZ6rstripRKNSt7__cxx1112basic_stringIcSt11char_traitsIcESaIcEEEEUlhE_EONSt16remove_referenceIT_E4typeEOSB_, symObjAddr: 0x34F0, symBinAddr: 0x10000708C, symSize: 0x14 }
  - { offsetInCU: 0x18FB9, offset: 0x18FB9, size: 0x8, addend: 0x0, symName: __ZNSt6vectorINSt7__cxx1112basic_stringIcSt11char_traitsIcESaIcEEESaIS5_EE11_S_relocateEPS5_S8_S8_RS6_, symObjAddr: 0x34BC, symBinAddr: 0x100007058, symSize: 0x34 }
  - { offsetInCU: 0x19012, offset: 0x19012, size: 0x8, addend: 0x0, symName: __ZSt12__to_addressINSt7__cxx1112basic_stringIcSt11char_traitsIcESaIcEEEEPT_S7_, symObjAddr: 0x34A8, symBinAddr: 0x100007044, symSize: 0x14 }
  - { offsetInCU: 0x19048, offset: 0x19048, size: 0x8, addend: 0x0, symName: __ZNSt12_Vector_baseINSt7__cxx1112basic_stringIcSt11char_traitsIcESaIcEEESaIS5_EE11_M_allocateEm, symObjAddr: 0x3458, symBinAddr: 0x100006FF4, symSize: 0x50 }
  - { offsetInCU: 0x190B1, offset: 0x190B1, size: 0x8, addend: 0x0, symName: __ZN9__gnu_cxxmiIPNSt7__cxx1112basic_stringIcSt11char_traitsIcESaIcEEESt6vectorIS6_SaIS6_EEEENS_17__normal_iteratorIT_T0_E15difference_typeERKSE_SH_, symObjAddr: 0x3418, symBinAddr: 0x100006FB4, symSize: 0x40 }
  - { offsetInCU: 0x19100, offset: 0x19100, size: 0x8, addend: 0x0, symName: __ZNSt6vectorINSt7__cxx1112basic_stringIcSt11char_traitsIcESaIcEEESaIS5_EE5beginEv, symObjAddr: 0x33F4, symBinAddr: 0x100006F90, symSize: 0x24 }
  - { offsetInCU: 0x1912A, offset: 0x1912A, size: 0x8, addend: 0x0, symName: __ZNSt6vectorINSt7__cxx1112basic_stringIcSt11char_traitsIcESaIcEEESaIS5_EE3endEv, symObjAddr: 0x33CC, symBinAddr: 0x100006F68, symSize: 0x28 }
  - { offsetInCU: 0x19154, offset: 0x19154, size: 0x8, addend: 0x0, symName: __ZNKSt6vectorINSt7__cxx1112basic_stringIcSt11char_traitsIcESaIcEEESaIS5_EE12_M_check_lenEmPKc, symObjAddr: 0x32FC, symBinAddr: 0x100006E98, symSize: 0xD0 }
  - { offsetInCU: 0x191F3, offset: 0x191F3, size: 0x8, addend: 0x0, symName: __ZSt7forwardIRKNSt7__cxx1112basic_stringIcSt11char_traitsIcESaIcEEEEOT_RNSt16remove_referenceIS8_E4typeE, symObjAddr: 0x32E8, symBinAddr: 0x100006E84, symSize: 0x14 }
  - { offsetInCU: 0x19225, offset: 0x19225, size: 0x8, addend: 0x0, symName: __ZSt8_DestroyIPNSt7__cxx1112basic_stringIcSt11char_traitsIcESaIcEEEEvT_S7_, symObjAddr: 0x32C0, symBinAddr: 0x100006E5C, symSize: 0x28 }
  - { offsetInCU: 0x19424, offset: 0x19424, size: 0x8, addend: 0x0, symName: __ZNSt10_HashtableINSt7__cxx1112basic_stringIcSt11char_traitsIcESaIcEEESt4pairIKS5_S5_ESaIS8_ENSt8__detail10_Select1stESt8equal_toIS5_ESt4hashIS5_ENSA_18_Mod_range_hashingENSA_20_Default_ranged_hashENSA_20_Prime_rehash_policyENSA_17_Hashtable_traitsILb1ELb0ELb1EEEEC1ERKSL_, symObjAddr: 0x31A4, symBinAddr: 0x100006D40, symSize: 0x11C }
  - { offsetInCU: 0x1946D, offset: 0x1946D, size: 0x8, addend: 0x0, symName: __ZNSt8__detail19_Node_iterator_baseISt4pairIKNSt7__cxx1112basic_stringIcSt11char_traitsIcESaIcEEESt13unordered_mapIS7_S7_St4hashIS7_ESt8equal_toIS7_ESaIS1_IS8_S7_EEEELb1EE7_M_incrEv, symObjAddr: 0x3174, symBinAddr: 0x100006D10, symSize: 0x30 }
  - { offsetInCU: 0x19497, offset: 0x19497, size: 0x8, addend: 0x0, symName: __ZNSt10_HashtableINSt7__cxx1112basic_stringIcSt11char_traitsIcESaIcEEESt4pairIKS5_St13unordered_mapIS5_S5_St4hashIS5_ESt8equal_toIS5_ESaIS6_IS7_S5_EEEESaISG_ENSt8__detail10_Select1stESC_SA_NSI_18_Mod_range_hashingENSI_20_Default_ranged_hashENSI_20_Prime_rehash_policyENSI_17_Hashtable_traitsILb1ELb0ELb1EEEE3endEv, symObjAddr: 0x3150, symBinAddr: 0x100006CEC, symSize: 0x24 }
  - { offsetInCU: 0x194C1, offset: 0x194C1, size: 0x8, addend: 0x0, symName: __ZNSt10_HashtableINSt7__cxx1112basic_stringIcSt11char_traitsIcESaIcEEESt4pairIKS5_St13unordered_mapIS5_S5_St4hashIS5_ESt8equal_toIS5_ESaIS6_IS7_S5_EEEESaISG_ENSt8__detail10_Select1stESC_SA_NSI_18_Mod_range_hashingENSI_20_Default_ranged_hashENSI_20_Prime_rehash_policyENSI_17_Hashtable_traitsILb1ELb0ELb1EEEE5beginEv, symObjAddr: 0x3124, symBinAddr: 0x100006CC0, symSize: 0x2C }
  - { offsetInCU: 0x194EB, offset: 0x194EB, size: 0x8, addend: 0x0, symName: __ZNSt8__detail9_Map_baseINSt7__cxx1112basic_stringIcSt11char_traitsIcESaIcEEESt4pairIKS6_S6_ESaIS9_ENS_10_Select1stESt8equal_toIS6_ESt4hashIS6_ENS_18_Mod_range_hashingENS_20_Default_ranged_hashENS_20_Prime_rehash_policyENS_17_Hashtable_traitsILb1ELb0ELb1EEELb1EEixERS8_, symObjAddr: 0x3004, symBinAddr: 0x100006BA0, symSize: 0x120 }
  - { offsetInCU: 0x19606, offset: 0x19606, size: 0x8, addend: 0x0, symName: __ZNSt8__detail19_Node_iterator_baseISt4pairIKNSt7__cxx1112basic_stringIcSt11char_traitsIcESaIcEEES7_ELb1EE7_M_incrEv, symObjAddr: 0x2FD4, symBinAddr: 0x100006B70, symSize: 0x30 }
  - { offsetInCU: 0x19630, offset: 0x19630, size: 0x8, addend: 0x0, symName: __ZNSt10_HashtableINSt7__cxx1112basic_stringIcSt11char_traitsIcESaIcEEESt4pairIKS5_S5_ESaIS8_ENSt8__detail10_Select1stESt8equal_toIS5_ESt4hashIS5_ENSA_18_Mod_range_hashingENSA_20_Default_ranged_hashENSA_20_Prime_rehash_policyENSA_17_Hashtable_traitsILb1ELb0ELb1EEEE3endEv, symObjAddr: 0x2FB0, symBinAddr: 0x100006B4C, symSize: 0x24 }
  - { offsetInCU: 0x1965A, offset: 0x1965A, size: 0x8, addend: 0x0, symName: __ZNSt10_HashtableINSt7__cxx1112basic_stringIcSt11char_traitsIcESaIcEEESt4pairIKS5_S5_ESaIS8_ENSt8__detail10_Select1stESt8equal_toIS5_ESt4hashIS5_ENSA_18_Mod_range_hashingENSA_20_Default_ranged_hashENSA_20_Prime_rehash_policyENSA_17_Hashtable_traitsILb1ELb0ELb1EEEE5beginEv, symObjAddr: 0x2F84, symBinAddr: 0x100006B20, symSize: 0x2C }
  - { offsetInCU: 0x19684, offset: 0x19684, size: 0x8, addend: 0x0, symName: __ZNSt5dequeINSt7__cxx1112basic_stringIcSt11char_traitsIcESaIcEEESaIS5_EE9push_backERKS5_, symObjAddr: 0x2E84, symBinAddr: 0x100006A20, symSize: 0x100 }
  - { offsetInCU: 0x19722, offset: 0x19722, size: 0x8, addend: 0x0, symName: __ZNSt8__detail9_Map_baseINSt7__cxx1112basic_stringIcSt11char_traitsIcESaIcEEESt4pairIKS6_S6_ESaIS9_ENS_10_Select1stESt8equal_toIS6_ESt4hashIS6_ENS_18_Mod_range_hashingENS_20_Default_ranged_hashENS_20_Prime_rehash_policyENS_17_Hashtable_traitsILb1ELb0ELb1EEELb1EEixEOS6_, symObjAddr: 0x2D54, symBinAddr: 0x1000068F0, symSize: 0x130 }
  - { offsetInCU: 0x19821, offset: 0x19821, size: 0x8, addend: 0x0, symName: __ZNSt8__detail9_Map_baseINSt7__cxx1112basic_stringIcSt11char_traitsIcESaIcEEESt4pairIKS6_St13unordered_mapIS6_S6_St4hashIS6_ESt8equal_toIS6_ESaIS7_IS8_S6_EEEESaISH_ENS_10_Select1stESD_SB_NS_18_Mod_range_hashingENS_20_Default_ranged_hashENS_20_Prime_rehash_policyENS_17_Hashtable_traitsILb1ELb0ELb1EEELb1EEixERS8_, symObjAddr: 0x2C34, symBinAddr: 0x1000067D0, symSize: 0x120 }
  - { offsetInCU: 0x19926, offset: 0x19926, size: 0x8, addend: 0x0, symName: __ZNSt5dequeINSt7__cxx1112basic_stringIcSt11char_traitsIcESaIcEEESaIS5_EE4backEv, symObjAddr: 0x2C00, symBinAddr: 0x10000679C, symSize: 0x34 }
  - { offsetInCU: 0x19961, offset: 0x19961, size: 0x8, addend: 0x0, symName: __ZNKSt5dequeINSt7__cxx1112basic_stringIcSt11char_traitsIcESaIcEEESaIS5_EE5emptyEv, symObjAddr: 0x2BD0, symBinAddr: 0x10000676C, symSize: 0x30 }
  - { offsetInCU: 0x1998B, offset: 0x1998B, size: 0x8, addend: 0x0, symName: __ZNSt5dequeINSt7__cxx1112basic_stringIcSt11char_traitsIcESaIcEEESaIS5_EE8pop_backEv, symObjAddr: 0x2B44, symBinAddr: 0x1000066E0, symSize: 0x8C }
  - { offsetInCU: 0x19A0F, offset: 0x19A0F, size: 0x8, addend: 0x0, symName: __ZNSt10_HashtableINSt7__cxx1112basic_stringIcSt11char_traitsIcESaIcEEESt4pairIKS5_St13unordered_mapIS5_S5_St4hashIS5_ESt8equal_toIS5_ESaIS6_IS7_S5_EEEESaISG_ENSt8__detail10_Select1stESC_SA_NSI_18_Mod_range_hashingENSI_20_Default_ranged_hashENSI_20_Prime_rehash_policyENSI_17_Hashtable_traitsILb1ELb0ELb1EEEE21_M_deallocate_bucketsEv, symObjAddr: 0x2B10, symBinAddr: 0x1000066AC, symSize: 0x34 }
  - { offsetInCU: 0x19A39, offset: 0x19A39, size: 0x8, addend: 0x0, symName: __ZNSt10_HashtableINSt7__cxx1112basic_stringIcSt11char_traitsIcESaIcEEESt4pairIKS5_St13unordered_mapIS5_S5_St4hashIS5_ESt8equal_toIS5_ESaIS6_IS7_S5_EEEESaISG_ENSt8__detail10_Select1stESC_SA_NSI_18_Mod_range_hashingENSI_20_Default_ranged_hashENSI_20_Prime_rehash_policyENSI_17_Hashtable_traitsILb1ELb0ELb1EEEE5clearEv, symObjAddr: 0x2AB0, symBinAddr: 0x10000664C, symSize: 0x60 }
  - { offsetInCU: 0x19B41, offset: 0x19B41, size: 0x8, addend: 0x0, symName: __ZNSt15__new_allocatorINSt8__detail10_Hash_nodeISt4pairIKNSt7__cxx1112basic_stringIcSt11char_traitsIcESaIcEEESt13unordered_mapIS8_S8_St4hashIS8_ESt8equal_toIS8_ESaIS2_IS9_S8_EEEELb1EEEED2Ev, symObjAddr: 0x2A9C, symBinAddr: 0x100006638, symSize: 0x14 }
  - { offsetInCU: 0x19AC3, offset: 0x19AC3, size: 0x8, addend: 0x0, symName: __ZNSt5dequeINSt7__cxx1112basic_stringIcSt11char_traitsIcESaIcEEESaIS5_EE15_M_destroy_dataESt15_Deque_iteratorIS5_RS5_PS5_ESB_RKS6_, symObjAddr: 0x2A48, symBinAddr: 0x1000065E4, symSize: 0x54 }
  - { offsetInCU: 0x19B1C, offset: 0x19B1C, size: 0x8, addend: 0x0, symName: __ZNSt11_Deque_baseINSt7__cxx1112basic_stringIcSt11char_traitsIcESaIcEEESaIS5_EE19_M_get_Tp_allocatorEv, symObjAddr: 0x2A34, symBinAddr: 0x1000065D0, symSize: 0x14 }
  - { offsetInCU: 0x19B46, offset: 0x19B46, size: 0x8, addend: 0x0, symName: __ZNSt5dequeINSt7__cxx1112basic_stringIcSt11char_traitsIcESaIcEEESaIS5_EE3endEv, symObjAddr: 0x29FC, symBinAddr: 0x100006598, symSize: 0x38 }
  - { offsetInCU: 0x19B70, offset: 0x19B70, size: 0x8, addend: 0x0, symName: __ZNSt5dequeINSt7__cxx1112basic_stringIcSt11char_traitsIcESaIcEEESaIS5_EE5beginEv, symObjAddr: 0x29C4, symBinAddr: 0x100006560, symSize: 0x38 }
  - { offsetInCU: 0x19C0E, offset: 0x19C0E, size: 0x8, addend: 0x0, symName: __ZNSt11_Deque_baseINSt7__cxx1112basic_stringIcSt11char_traitsIcESaIcEEESaIS5_EED2Ev, symObjAddr: 0x2958, symBinAddr: 0x1000064F4, symSize: 0x6C }
  - { offsetInCU: 0x19C4E, offset: 0x19C4E, size: 0x8, addend: 0x0, symName: __ZNSt11_Deque_baseINSt7__cxx1112basic_stringIcSt11char_traitsIcESaIcEEESaIS5_EEC2Ev, symObjAddr: 0x2910, symBinAddr: 0x1000064AC, symSize: 0x48 }
  - { offsetInCU: 0x19CA9, offset: 0x19CA9, size: 0x8, addend: 0x0, symName: __ZNSt11_Deque_baseINSt7__cxx1112basic_stringIcSt11char_traitsIcESaIcEEESaIS5_EE11_Deque_implD1Ev, symObjAddr: 0x28E4, symBinAddr: 0x100006480, symSize: 0x2C }
  - { offsetInCU: 0x19E18, offset: 0x19E18, size: 0x8, addend: 0x0, symName: __ZNSt10_HashtableINSt7__cxx1112basic_stringIcSt11char_traitsIcESaIcEEESt4pairIKS5_S5_ESaIS8_ENSt8__detail10_Select1stESt8equal_toIS5_ESt4hashIS5_ENSA_18_Mod_range_hashingENSA_20_Default_ranged_hashENSA_20_Prime_rehash_policyENSA_17_Hashtable_traitsILb1ELb0ELb1EEEEC1EOSL_OSaINSA_10_Hash_nodeIS8_Lb1EEEESt17integral_constantIbLb1EE, symObjAddr: 0x2804, symBinAddr: 0x1000063A0, symSize: 0xE0 }
  - { offsetInCU: 0x19D14, offset: 0x19D14, size: 0x8, addend: 0x0, symName: __ZSt4moveIRSaINSt8__detail10_Hash_nodeISt4pairIKNSt7__cxx1112basic_stringIcSt11char_traitsIcESaIcEEES8_ELb1EEEEEONSt16remove_referenceIT_E4typeEOSF_, symObjAddr: 0x27F0, symBinAddr: 0x10000638C, symSize: 0x14 }
  - { offsetInCU: 0x19D4A, offset: 0x19D4A, size: 0x8, addend: 0x0, symName: __ZNSt8__detail16_Hashtable_allocISaINS_10_Hash_nodeISt4pairIKNSt7__cxx1112basic_stringIcSt11char_traitsIcESaIcEEES8_ELb1EEEEE17_M_node_allocatorEv, symObjAddr: 0x27D4, symBinAddr: 0x100006370, symSize: 0x1C }
  - { offsetInCU: 0x19D76, offset: 0x19D76, size: 0x8, addend: 0x0, symName: __ZSt4moveIRSt10_HashtableINSt7__cxx1112basic_stringIcSt11char_traitsIcESaIcEEESt4pairIKS6_S6_ESaIS9_ENSt8__detail10_Select1stESt8equal_toIS6_ESt4hashIS6_ENSB_18_Mod_range_hashingENSB_20_Default_ranged_hashENSB_20_Prime_rehash_policyENSB_17_Hashtable_traitsILb1ELb0ELb1EEEEEONSt16remove_referenceIT_E4typeEOSP_, symObjAddr: 0x27C0, symBinAddr: 0x10000635C, symSize: 0x14 }
  - { offsetInCU: 0x19DB7, offset: 0x19DB7, size: 0x8, addend: 0x0, symName: __ZNSt8__detail7_InsertINSt7__cxx1112basic_stringIcSt11char_traitsIcESaIcEEESt4pairIKS6_S6_ESaIS9_ENS_10_Select1stESt8equal_toIS6_ESt4hashIS6_ENS_18_Mod_range_hashingENS_20_Default_ranged_hashENS_20_Prime_rehash_policyENS_17_Hashtable_traitsILb1ELb0ELb1EEELb0EE6insertIS9_vEES7_INS_14_Node_iteratorIS9_Lb0ELb1EEEbEOT_, symObjAddr: 0x277C, symBinAddr: 0x100006318, symSize: 0x44 }
  - { offsetInCU: 0x19E13, offset: 0x19E13, size: 0x8, addend: 0x0, symName: __ZSt4moveIRSt4pairIKNSt7__cxx1112basic_stringIcSt11char_traitsIcESaIcEEES6_EEONSt16remove_referenceIT_E4typeEOSB_, symObjAddr: 0x2768, symBinAddr: 0x100006304, symSize: 0x14 }
  - { offsetInCU: 0x19E4B, offset: 0x19E4B, size: 0x8, addend: 0x0, symName: __ZSt7forwardIRNSt7__cxx1112basic_stringIcSt11char_traitsIcESaIcEEEEOT_RNSt16remove_referenceIS7_E4typeE, symObjAddr: 0x2754, symBinAddr: 0x1000062F0, symSize: 0x14 }
  - { offsetInCU: 0x19E81, offset: 0x19E81, size: 0x8, addend: 0x0, symName: __ZNSt10_HashtableINSt7__cxx1112basic_stringIcSt11char_traitsIcESaIcEEESt4pairIKS5_S5_ESaIS8_ENSt8__detail10_Select1stESt8equal_toIS5_ESt4hashIS5_ENSA_18_Mod_range_hashingENSA_20_Default_ranged_hashENSA_20_Prime_rehash_policyENSA_17_Hashtable_traitsILb1ELb0ELb1EEEE21_M_deallocate_bucketsEv, symObjAddr: 0x2720, symBinAddr: 0x1000062BC, symSize: 0x34 }
  - { offsetInCU: 0x19EAB, offset: 0x19EAB, size: 0x8, addend: 0x0, symName: __ZNSt10_HashtableINSt7__cxx1112basic_stringIcSt11char_traitsIcESaIcEEESt4pairIKS5_S5_ESaIS8_ENSt8__detail10_Select1stESt8equal_toIS5_ESt4hashIS5_ENSA_18_Mod_range_hashingENSA_20_Default_ranged_hashENSA_20_Prime_rehash_policyENSA_17_Hashtable_traitsILb1ELb0ELb1EEEE5clearEv, symObjAddr: 0x26C0, symBinAddr: 0x10000625C, symSize: 0x60 }
  - { offsetInCU: 0x19F72, offset: 0x19F72, size: 0x8, addend: 0x0, symName: __ZNSt15__new_allocatorINSt8__detail10_Hash_nodeISt4pairIKNSt7__cxx1112basic_stringIcSt11char_traitsIcESaIcEEES8_ELb1EEEED2Ev, symObjAddr: 0x26AC, symBinAddr: 0x100006248, symSize: 0x14 }
  - { offsetInCU: 0x19F31, offset: 0x19F31, size: 0x8, addend: 0x0, symName: __ZSt9__find_ifIN9__gnu_cxx17__normal_iteratorIPKcNSt7__cxx1112basic_stringIcSt11char_traitsIcESaIcEEEEENS0_5__ops10_Iter_predIZ6lstripRKS9_EUlhE_EEET_SH_SH_T0_, symObjAddr: 0x267C, symBinAddr: 0x100006218, symSize: 0x30 }
  - { offsetInCU: 0x19FAD, offset: 0x19FAD, size: 0x8, addend: 0x0, symName: __ZN9__gnu_cxx5__ops11__pred_iterIZ6lstripRKNSt7__cxx1112basic_stringIcSt11char_traitsIcESaIcEEEEUlhE_EENS0_10_Iter_predIT_EESC_, symObjAddr: 0x2644, symBinAddr: 0x1000061E0, symSize: 0x38 }
  - { offsetInCU: 0x19FE3, offset: 0x19FE3, size: 0x8, addend: 0x0, symName: __ZNSt7__cxx1112basic_stringIcSt11char_traitsIcESaIcEE12_M_constructIN9__gnu_cxx17__normal_iteratorIPKcS4_EEEEvT_SB_St20forward_iterator_tag, symObjAddr: 0x2540, symBinAddr: 0x1000060DC, symSize: 0x104 }
  - { offsetInCU: 0x1A184, offset: 0x1A184, size: 0x8, addend: 0x0, symName: __ZZNSt7__cxx1112basic_stringIcSt11char_traitsIcESaIcEE12_M_constructIN9__gnu_cxx17__normal_iteratorIPKcS4_EEEEvT_SB_St20forward_iterator_tagEN6_GuardC1EPS4_, symObjAddr: 0x24E8, symBinAddr: 0x100006084, symSize: 0x24 }
  - { offsetInCU: 0x1A1B5, offset: 0x1A1B5, size: 0x8, addend: 0x0, symName: __ZZNSt7__cxx1112basic_stringIcSt11char_traitsIcESaIcEE12_M_constructIN9__gnu_cxx17__normal_iteratorIPKcS4_EEEEvT_SB_St20forward_iterator_tagEN6_GuardD1Ev, symObjAddr: 0x250C, symBinAddr: 0x1000060A8, symSize: 0x34 }
  - { offsetInCU: 0x1A20C, offset: 0x1A20C, size: 0x8, addend: 0x0, symName: __ZSt9__find_ifISt16reverse_iteratorIN9__gnu_cxx17__normal_iteratorIPKcNSt7__cxx1112basic_stringIcSt11char_traitsIcESaIcEEEEEENS1_5__ops10_Iter_predIZ6rstripRKSA_EUlhE_EEET_SJ_SJ_T0_, symObjAddr: 0x2480, symBinAddr: 0x10000601C, symSize: 0x68 }
  - { offsetInCU: 0x1A32E, offset: 0x1A32E, size: 0x8, addend: 0x0, symName: __ZNSt16reverse_iteratorIN9__gnu_cxx17__normal_iteratorIPKcNSt7__cxx1112basic_stringIcSt11char_traitsIcESaIcEEEEEEC1ERKSB_, symObjAddr: 0x2458, symBinAddr: 0x100005FF4, symSize: 0x28 }
  - { offsetInCU: 0x1A2E3, offset: 0x1A2E3, size: 0x8, addend: 0x0, symName: __ZN9__gnu_cxx5__ops11__pred_iterIZ6rstripRKNSt7__cxx1112basic_stringIcSt11char_traitsIcESaIcEEEEUlhE_EENS0_10_Iter_predIT_EESC_, symObjAddr: 0x2420, symBinAddr: 0x100005FBC, symSize: 0x38 }
  - { offsetInCU: 0x1A319, offset: 0x1A319, size: 0x8, addend: 0x0, symName: __ZNSt6vectorINSt7__cxx1112basic_stringIcSt11char_traitsIcESaIcEEESaIS5_EE17_M_realloc_appendIJRKS5_EEEvDpOT_, symObjAddr: 0x2224, symBinAddr: 0x100005DC0, symSize: 0x1FC }
  - { offsetInCU: 0x1A51C, offset: 0x1A51C, size: 0x8, addend: 0x0, symName: __ZZNSt6vectorINSt7__cxx1112basic_stringIcSt11char_traitsIcESaIcEEESaIS5_EE17_M_realloc_appendIJRKS5_EEEvDpOT_EN6_GuardC1EPS5_mRS6_, symObjAddr: 0x2180, symBinAddr: 0x100005D1C, symSize: 0x44 }
  - { offsetInCU: 0x1A55A, offset: 0x1A55A, size: 0x8, addend: 0x0, symName: __ZZNSt6vectorINSt7__cxx1112basic_stringIcSt11char_traitsIcESaIcEEESaIS5_EE17_M_realloc_appendIJRKS5_EEEvDpOT_EN6_GuardD1Ev, symObjAddr: 0x21C4, symBinAddr: 0x100005D60, symSize: 0x60 }
  - { offsetInCU: 0x1A650, offset: 0x1A650, size: 0x8, addend: 0x0, symName: __ZNSt12_Vector_baseINSt7__cxx1112basic_stringIcSt11char_traitsIcESaIcEEESaIS5_EE19_M_get_Tp_allocatorEv, symObjAddr: 0x216C, symBinAddr: 0x100005D08, symSize: 0x14 }
  - { offsetInCU: 0x1A67A, offset: 0x1A67A, size: 0x8, addend: 0x0, symName: __ZNSt12_Vector_baseINSt7__cxx1112basic_stringIcSt11char_traitsIcESaIcEEESaIS5_EE13_M_deallocateEPS5_m, symObjAddr: 0x2114, symBinAddr: 0x100005CB0, symSize: 0x58 }
  - { offsetInCU: 0x1A76B, offset: 0x1A76B, size: 0x8, addend: 0x0, symName: __ZNSt15__new_allocatorINSt7__cxx1112basic_stringIcSt11char_traitsIcESaIcEEEED2Ev, symObjAddr: 0x2100, symBinAddr: 0x100005C9C, symSize: 0x14 }
  - { offsetInCU: 0x1A7C2, offset: 0x1A7C2, size: 0x8, addend: 0x0, symName: __ZNSt12_Vector_baseINSt7__cxx1112basic_stringIcSt11char_traitsIcESaIcEEESaIS5_EE17_Vector_impl_dataC2Ev, symObjAddr: 0x20D4, symBinAddr: 0x100005C70, symSize: 0x2C }
  - { offsetInCU: 0x1A79C, offset: 0x1A79C, size: 0x8, addend: 0x0, symName: __ZSt7forwardIbEOT_RNSt16remove_referenceIS0_E4typeE, symObjAddr: 0x20C0, symBinAddr: 0x100005C5C, symSize: 0x14 }
  - { offsetInCU: 0x1A7D4, offset: 0x1A7D4, size: 0x8, addend: 0x0, symName: __ZSt4moveIRNSt7__cxx1112basic_stringIcSt11char_traitsIcESaIcEEEEONSt16remove_referenceIT_E4typeEOS8_, symObjAddr: 0x20AC, symBinAddr: 0x100005C48, symSize: 0x14 }
  - { offsetInCU: 0x1A80A, offset: 0x1A80A, size: 0x8, addend: 0x0, symName: __ZNSt7__cxx1112basic_stringIcSt11char_traitsIcESaIcEE12_M_constructIPKcEEvT_S8_St20forward_iterator_tag, symObjAddr: 0x1FAC, symBinAddr: 0x100005B48, symSize: 0x100 }
  - { offsetInCU: 0x1A987, offset: 0x1A987, size: 0x8, addend: 0x0, symName: __ZZNSt7__cxx1112basic_stringIcSt11char_traitsIcESaIcEE12_M_constructIPKcEEvT_S8_St20forward_iterator_tagEN6_GuardC1EPS4_, symObjAddr: 0x1F54, symBinAddr: 0x100005AF0, symSize: 0x24 }
  - { offsetInCU: 0x1A9B8, offset: 0x1A9B8, size: 0x8, addend: 0x0, symName: __ZZNSt7__cxx1112basic_stringIcSt11char_traitsIcESaIcEE12_M_constructIPKcEEvT_S8_St20forward_iterator_tagEN6_GuardD1Ev, symObjAddr: 0x1F78, symBinAddr: 0x100005B14, symSize: 0x34 }
  - { offsetInCU: 0x1AA5F, offset: 0x1AA5F, size: 0x8, addend: 0x0, symName: __ZNSt15__new_allocatorIcED2Ev, symObjAddr: 0x1F40, symBinAddr: 0x100005ADC, symSize: 0x14 }
  - { offsetInCU: 0x1AAA9, offset: 0x1AAA9, size: 0x8, addend: 0x0, symName: __ZN9__gnu_cxx11char_traitsIcE2eqERKcS3_, symObjAddr: 0x1F10, symBinAddr: 0x100005AAC, symSize: 0x30 }
  - { offsetInCU: 0x1ABBB, offset: 0x1ABBB, size: 0x8, addend: 0x0, symName: __ZNSt4pairINSt7__cxx1112basic_stringIcSt11char_traitsIcESaIcEEESt13unordered_mapIS5_S5_St4hashIS5_ESt8equal_toIS5_ESaIS_IKS5_S5_EEEEC1ISB_SE_Lb1EEERKS_IT_T0_E, symObjAddr: 0x1EB0, symBinAddr: 0x100005A4C, symSize: 0x60 }
  - { offsetInCU: 0x1AC02, offset: 0x1AC02, size: 0x8, addend: 0x0, symName: __ZNSt13unordered_mapINSt7__cxx1112basic_stringIcSt11char_traitsIcESaIcEEES5_St4hashIS5_ESt8equal_toIS5_ESaISt4pairIKS5_S5_EEEC1ERKSE_, symObjAddr: 0x1E88, symBinAddr: 0x100005A24, symSize: 0x28 }
  - { offsetInCU: 0x1ABAF, offset: 0x1ABAF, size: 0x8, addend: 0x0, symName: __ZNKSt8__detail14_Node_iteratorISt4pairIKNSt7__cxx1112basic_stringIcSt11char_traitsIcESaIcEEESt13unordered_mapIS7_S7_St4hashIS7_ESt8equal_toIS7_ESaIS1_IS8_S7_EEEELb0ELb1EEdeEv, symObjAddr: 0x1E4C, symBinAddr: 0x1000059E8, symSize: 0x3C }
  - { offsetInCU: 0x1AC21, offset: 0x1AC21, size: 0x8, addend: 0x0, symName: __ZNSt8__detail14_Node_iteratorISt4pairIKNSt7__cxx1112basic_stringIcSt11char_traitsIcESaIcEEESt13unordered_mapIS7_S7_St4hashIS7_ESt8equal_toIS7_ESaIS1_IS8_S7_EEEELb0ELb1EEppEv, symObjAddr: 0x1E2C, symBinAddr: 0x1000059C8, symSize: 0x20 }
  - { offsetInCU: 0x1AC4D, offset: 0x1AC4D, size: 0x8, addend: 0x0, symName: __ZNSt8__detailneERKNS_19_Node_iterator_baseISt4pairIKNSt7__cxx1112basic_stringIcSt11char_traitsIcESaIcEEESt13unordered_mapIS7_S7_St4hashIS7_ESt8equal_toIS7_ESaIS1_IS8_S7_EEEELb1EEESK_, symObjAddr: 0x1DFC, symBinAddr: 0x100005998, symSize: 0x30 }
  - { offsetInCU: 0x1AC8A, offset: 0x1AC8A, size: 0x8, addend: 0x0, symName: __ZNSt13unordered_mapINSt7__cxx1112basic_stringIcSt11char_traitsIcESaIcEEES_IS5_S5_St4hashIS5_ESt8equal_toIS5_ESaISt4pairIKS5_S5_EEES7_S9_SaISA_ISB_SE_EEE3endEv, symObjAddr: 0x1DE0, symBinAddr: 0x10000597C, symSize: 0x1C }
  - { offsetInCU: 0x1ACB4, offset: 0x1ACB4, size: 0x8, addend: 0x0, symName: __ZNSt13unordered_mapINSt7__cxx1112basic_stringIcSt11char_traitsIcESaIcEEES_IS5_S5_St4hashIS5_ESt8equal_toIS5_ESaISt4pairIKS5_S5_EEES7_S9_SaISA_ISB_SE_EEE5beginEv, symObjAddr: 0x1DC4, symBinAddr: 0x100005960, symSize: 0x1C }
  - { offsetInCU: 0x1ACDE, offset: 0x1ACDE, size: 0x8, addend: 0x0, symName: __ZNSt13unordered_mapINSt7__cxx1112basic_stringIcSt11char_traitsIcESaIcEEES5_St4hashIS5_ESt8equal_toIS5_ESaISt4pairIKS5_S5_EEEixERSB_, symObjAddr: 0x1DA0, symBinAddr: 0x10000593C, symSize: 0x24 }
  - { offsetInCU: 0x1ADAD, offset: 0x1ADAD, size: 0x8, addend: 0x0, symName: __ZNSt4pairINSt7__cxx1112basic_stringIcSt11char_traitsIcESaIcEEES5_EC1IKS5_S5_Lb1EEERKS_IT_T0_E, symObjAddr: 0x1D40, symBinAddr: 0x1000058DC, symSize: 0x60 }
  - { offsetInCU: 0x1AD93, offset: 0x1AD93, size: 0x8, addend: 0x0, symName: __ZNKSt8__detail14_Node_iteratorISt4pairIKNSt7__cxx1112basic_stringIcSt11char_traitsIcESaIcEEES7_ELb0ELb1EEdeEv, symObjAddr: 0x1D04, symBinAddr: 0x1000058A0, symSize: 0x3C }
  - { offsetInCU: 0x1AE05, offset: 0x1AE05, size: 0x8, addend: 0x0, symName: __ZNSt8__detail14_Node_iteratorISt4pairIKNSt7__cxx1112basic_stringIcSt11char_traitsIcESaIcEEES7_ELb0ELb1EEppEv, symObjAddr: 0x1CE4, symBinAddr: 0x100005880, symSize: 0x20 }
  - { offsetInCU: 0x1AE31, offset: 0x1AE31, size: 0x8, addend: 0x0, symName: __ZNSt8__detailneERKNS_19_Node_iterator_baseISt4pairIKNSt7__cxx1112basic_stringIcSt11char_traitsIcESaIcEEES7_ELb1EEESC_, symObjAddr: 0x1CB4, symBinAddr: 0x100005850, symSize: 0x30 }
  - { offsetInCU: 0x1AE6E, offset: 0x1AE6E, size: 0x8, addend: 0x0, symName: __ZNSt13unordered_mapINSt7__cxx1112basic_stringIcSt11char_traitsIcESaIcEEES5_St4hashIS5_ESt8equal_toIS5_ESaISt4pairIKS5_S5_EEE3endEv, symObjAddr: 0x1C98, symBinAddr: 0x100005834, symSize: 0x1C }
  - { offsetInCU: 0x1AE98, offset: 0x1AE98, size: 0x8, addend: 0x0, symName: __ZNSt13unordered_mapINSt7__cxx1112basic_stringIcSt11char_traitsIcESaIcEEES5_St4hashIS5_ESt8equal_toIS5_ESaISt4pairIKS5_S5_EEE5beginEv, symObjAddr: 0x1C7C, symBinAddr: 0x100005818, symSize: 0x1C }
  - { offsetInCU: 0x1AEC2, offset: 0x1AEC2, size: 0x8, addend: 0x0, symName: __ZNSt5stackINSt7__cxx1112basic_stringIcSt11char_traitsIcESaIcEEESt5dequeIS5_SaIS5_EEE4pushERKS5_, symObjAddr: 0x1C54, symBinAddr: 0x1000057F0, symSize: 0x28 }
  - { offsetInCU: 0x1AEFC, offset: 0x1AEFC, size: 0x8, addend: 0x0, symName: __ZNSt13unordered_mapINSt7__cxx1112basic_stringIcSt11char_traitsIcESaIcEEES5_St4hashIS5_ESt8equal_toIS5_ESaISt4pairIKS5_S5_EEEixEOS5_, symObjAddr: 0x1C1C, symBinAddr: 0x1000057B8, symSize: 0x38 }
  - { offsetInCU: 0x1AF36, offset: 0x1AF36, size: 0x8, addend: 0x0, symName: __ZNSt13unordered_mapINSt7__cxx1112basic_stringIcSt11char_traitsIcESaIcEEES_IS5_S5_St4hashIS5_ESt8equal_toIS5_ESaISt4pairIKS5_S5_EEES7_S9_SaISA_ISB_SE_EEEixERSB_, symObjAddr: 0x1BF8, symBinAddr: 0x100005794, symSize: 0x24 }
  - { offsetInCU: 0x1AF70, offset: 0x1AF70, size: 0x8, addend: 0x0, symName: __ZNSt5stackINSt7__cxx1112basic_stringIcSt11char_traitsIcESaIcEEESt5dequeIS5_SaIS5_EEE3topEv, symObjAddr: 0x1BDC, symBinAddr: 0x100005778, symSize: 0x1C }
  - { offsetInCU: 0x1AF9A, offset: 0x1AF9A, size: 0x8, addend: 0x0, symName: __ZNKSt5stackINSt7__cxx1112basic_stringIcSt11char_traitsIcESaIcEEESt5dequeIS5_SaIS5_EEE5emptyEv, symObjAddr: 0x1BC0, symBinAddr: 0x10000575C, symSize: 0x1C }
  - { offsetInCU: 0x1AFC4, offset: 0x1AFC4, size: 0x8, addend: 0x0, symName: __ZNSt5stackINSt7__cxx1112basic_stringIcSt11char_traitsIcESaIcEEESt5dequeIS5_SaIS5_EEE3popEv, symObjAddr: 0x1BA0, symBinAddr: 0x10000573C, symSize: 0x20 }
  - { offsetInCU: 0x1AFEA, offset: 0x1AFEA, size: 0x8, addend: 0x0, symName: __ZSteqIcSt11char_traitsIcESaIcEEbRKNSt7__cxx1112basic_stringIT_T0_T1_EEPKS5_, symObjAddr: 0x1B2C, symBinAddr: 0x1000056C8, symSize: 0x74 }
  - { offsetInCU: 0x1B19A, offset: 0x1B19A, size: 0x8, addend: 0x0, symName: __ZNSt10_HashtableINSt7__cxx1112basic_stringIcSt11char_traitsIcESaIcEEESt4pairIKS5_St13unordered_mapIS5_S5_St4hashIS5_ESt8equal_toIS5_ESaIS6_IS7_S5_EEEESaISG_ENSt8__detail10_Select1stESC_SA_NSI_18_Mod_range_hashingENSI_20_Default_ranged_hashENSI_20_Prime_rehash_policyENSI_17_Hashtable_traitsILb1ELb0ELb1EEEED1Ev, symObjAddr: 0x1AFC, symBinAddr: 0x100005698, symSize: 0x30 }
  - { offsetInCU: 0x1B192, offset: 0x1B192, size: 0x8, addend: 0x0, symName: __ZNSt8__detail21_Hashtable_ebo_helperILi0ESaINS_10_Hash_nodeISt4pairIKNSt7__cxx1112basic_stringIcSt11char_traitsIcESaIcEEESt13unordered_mapIS8_S8_St4hashIS8_ESt8equal_toIS8_ESaIS2_IS9_S8_EEEELb1EEEELb1EEC2Ev, symObjAddr: 0x1AD0, symBinAddr: 0x10000566C, symSize: 0x2C }
  - { offsetInCU: 0x1B1A0, offset: 0x1B1A0, size: 0x8, addend: 0x0, symName: __ZNSt5dequeINSt7__cxx1112basic_stringIcSt11char_traitsIcESaIcEEESaIS5_EED1Ev, symObjAddr: 0x1A68, symBinAddr: 0x100005604, symSize: 0x68 }
  - { offsetInCU: 0x1B202, offset: 0x1B202, size: 0x8, addend: 0x0, symName: __ZNSt5stackINSt7__cxx1112basic_stringIcSt11char_traitsIcESaIcEEESt5dequeIS5_SaIS5_EEEC1IS8_vEEv, symObjAddr: 0x1A2C, symBinAddr: 0x1000055C8, symSize: 0x3C }
  - { offsetInCU: 0x1B23D, offset: 0x1B23D, size: 0x8, addend: 0x0, symName: __ZNSt5dequeINSt7__cxx1112basic_stringIcSt11char_traitsIcESaIcEEESaIS5_EEC1Ev, symObjAddr: 0x1A0C, symBinAddr: 0x1000055A8, symSize: 0x20 }
  - { offsetInCU: 0x1B34E, offset: 0x1B34E, size: 0x8, addend: 0x0, symName: __ZNSt10_HashtableINSt7__cxx1112basic_stringIcSt11char_traitsIcESaIcEEESt4pairIKS5_S5_ESaIS8_ENSt8__detail10_Select1stESt8equal_toIS5_ESt4hashIS5_ENSA_18_Mod_range_hashingENSA_20_Default_ranged_hashENSA_20_Prime_rehash_policyENSA_17_Hashtable_traitsILb1ELb0ELb1EEEEC1EOSL_, symObjAddr: 0x19BC, symBinAddr: 0x100005558, symSize: 0x50 }
  - { offsetInCU: 0x1B271, offset: 0x1B271, size: 0x8, addend: 0x0, symName: __ZNSt13unordered_mapINSt7__cxx1112basic_stringIcSt11char_traitsIcESaIcEEES5_St4hashIS5_ESt8equal_toIS5_ESaISt4pairIKS5_S5_EEE6insertEOSC_, symObjAddr: 0x1984, symBinAddr: 0x100005520, symSize: 0x38 }
  - { offsetInCU: 0x1B34B, offset: 0x1B34B, size: 0x8, addend: 0x0, symName: __ZNSt4pairIKNSt7__cxx1112basic_stringIcSt11char_traitsIcESaIcEEES5_EC1IRS5_S9_Lb1EEEOT_OT0_, symObjAddr: 0x1914, symBinAddr: 0x1000054B0, symSize: 0x70 }
  - { offsetInCU: 0x1B33D, offset: 0x1B33D, size: 0x8, addend: 0x0, symName: __ZNSt6vectorINSt7__cxx1112basic_stringIcSt11char_traitsIcESaIcEEESaIS5_EEixEm, symObjAddr: 0x18EC, symBinAddr: 0x100005488, symSize: 0x28 }
  - { offsetInCU: 0x1B377, offset: 0x1B377, size: 0x8, addend: 0x0, symName: __ZNKSt6vectorINSt7__cxx1112basic_stringIcSt11char_traitsIcESaIcEEESaIS5_EE4sizeEv, symObjAddr: 0x18C4, symBinAddr: 0x100005460, symSize: 0x28 }
  - { offsetInCU: 0x1B42A, offset: 0x1B42A, size: 0x8, addend: 0x0, symName: __ZNSt7__cxx1112basic_stringIcSt11char_traitsIcESaIcEEC1IS3_EEPKcRKS3_, symObjAddr: 0x1828, symBinAddr: 0x1000053C4, symSize: 0x9C }
  - { offsetInCU: 0x1B57A, offset: 0x1B57A, size: 0x8, addend: 0x0, symName: __ZNSt10_HashtableINSt7__cxx1112basic_stringIcSt11char_traitsIcESaIcEEESt4pairIKS5_S5_ESaIS8_ENSt8__detail10_Select1stESt8equal_toIS5_ESt4hashIS5_ENSA_18_Mod_range_hashingENSA_20_Default_ranged_hashENSA_20_Prime_rehash_policyENSA_17_Hashtable_traitsILb1ELb0ELb1EEEED1Ev, symObjAddr: 0x17F8, symBinAddr: 0x100005394, symSize: 0x30 }
  - { offsetInCU: 0x1B55C, offset: 0x1B55C, size: 0x8, addend: 0x0, symName: __ZNSt8__detail21_Hashtable_ebo_helperILi0ESaINS_10_Hash_nodeISt4pairIKNSt7__cxx1112basic_stringIcSt11char_traitsIcESaIcEEES8_ELb1EEEELb1EEC2Ev, symObjAddr: 0x17CC, symBinAddr: 0x100005368, symSize: 0x2C }
  - { offsetInCU: 0x1B5C9, offset: 0x1B5C9, size: 0x8, addend: 0x0, symName: __ZNSt8__detail21_Hashtable_ebo_helperILi0ESt8equal_toINSt7__cxx1112basic_stringIcSt11char_traitsIcESaIcEEEELb1EEC2Ev, symObjAddr: 0x17B8, symBinAddr: 0x100005354, symSize: 0x14 }
  - { offsetInCU: 0x1B605, offset: 0x1B605, size: 0x8, addend: 0x0, symName: __ZNSt8__detail21_Hashtable_ebo_helperILi1ESt4hashINSt7__cxx1112basic_stringIcSt11char_traitsIcESaIcEEEELb1EEC2Ev, symObjAddr: 0x17A4, symBinAddr: 0x100005340, symSize: 0x14 }
  - { offsetInCU: 0x1B5BA, offset: 0x1B5BA, size: 0x8, addend: 0x0, symName: __ZSt7find_ifIN9__gnu_cxx17__normal_iteratorIPKcNSt7__cxx1112basic_stringIcSt11char_traitsIcESaIcEEEEEZ6lstripRKS9_EUlhE_ET_SE_SE_T0_, symObjAddr: 0x1768, symBinAddr: 0x100005304, symSize: 0x3C }
  - { offsetInCU: 0x1B6CF, offset: 0x1B6CF, size: 0x8, addend: 0x0, symName: __ZNSt7__cxx1112basic_stringIcSt11char_traitsIcESaIcEEC1IN9__gnu_cxx17__normal_iteratorIPKcS4_EEvEET_SB_RKS3_, symObjAddr: 0x16EC, symBinAddr: 0x100005288, symSize: 0x7C }
  - { offsetInCU: 0x1B6D1, offset: 0x1B6D1, size: 0x8, addend: 0x0, symName: __ZNKSt16reverse_iteratorIN9__gnu_cxx17__normal_iteratorIPKcNSt7__cxx1112basic_stringIcSt11char_traitsIcESaIcEEEEEE4baseEv, symObjAddr: 0x16D4, symBinAddr: 0x100005270, symSize: 0x18 }
  - { offsetInCU: 0x1B6F7, offset: 0x1B6F7, size: 0x8, addend: 0x0, symName: __ZSt7find_ifISt16reverse_iteratorIN9__gnu_cxx17__normal_iteratorIPKcNSt7__cxx1112basic_stringIcSt11char_traitsIcESaIcEEEEEEZ6rstripRKSA_EUlhE_ET_SG_SG_T0_, symObjAddr: 0x166C, symBinAddr: 0x100005208, symSize: 0x68 }
  - { offsetInCU: 0x1B758, offset: 0x1B758, size: 0x8, addend: 0x0, symName: __ZNSt6vectorINSt7__cxx1112basic_stringIcSt11char_traitsIcESaIcEEESaIS5_EE9push_backERKS5_, symObjAddr: 0x1570, symBinAddr: 0x10000510C, symSize: 0xFC }
  - { offsetInCU: 0x1B7F2, offset: 0x1B7F2, size: 0x8, addend: 0x0, symName: __ZSt11__addressofINSt7__cxx1112basic_stringIcSt11char_traitsIcESaIcEEEEPT_RS6_, symObjAddr: 0x155C, symBinAddr: 0x1000050F8, symSize: 0x14 }
  - { offsetInCU: 0x1B896, offset: 0x1B896, size: 0x8, addend: 0x0, symName: __ZNSt6vectorINSt7__cxx1112basic_stringIcSt11char_traitsIcESaIcEEESaIS5_EED1Ev, symObjAddr: 0x1500, symBinAddr: 0x10000509C, symSize: 0x5C }
  - { offsetInCU: 0x1B91D, offset: 0x1B91D, size: 0x8, addend: 0x0, symName: __ZNSt12_Vector_baseINSt7__cxx1112basic_stringIcSt11char_traitsIcESaIcEEESaIS5_EED2Ev, symObjAddr: 0x14B0, symBinAddr: 0x10000504C, symSize: 0x50 }
  - { offsetInCU: 0x1B98B, offset: 0x1B98B, size: 0x8, addend: 0x0, symName: __ZNSt12_Vector_baseINSt7__cxx1112basic_stringIcSt11char_traitsIcESaIcEEESaIS5_EE12_Vector_implC1Ev, symObjAddr: 0x1478, symBinAddr: 0x100005014, symSize: 0x38 }
  - { offsetInCU: 0x1B994, offset: 0x1B994, size: 0x8, addend: 0x0, symName: __ZSt3maxImERKT_S2_S2_, symObjAddr: 0x1440, symBinAddr: 0x100004FDC, symSize: 0x38 }
  - { offsetInCU: 0x1BA7B, offset: 0x1BA7B, size: 0x8, addend: 0x0, symName: __ZNSt7__cxx1112basic_stringIcSt11char_traitsIcESaIcEE12_Alloc_hiderD1Ev, symObjAddr: 0x1414, symBinAddr: 0x100004FB0, symSize: 0x2C }
  - { offsetInCU: 0x1BA7C, offset: 0x1BA7C, size: 0x8, addend: 0x0, symName: __ZN9__gnu_cxx11char_traitsIcE6lengthEPKc, symObjAddr: 0x13BC, symBinAddr: 0x100004F58, symSize: 0x58 }
  - { offsetInCU: 0x1BABE, offset: 0x1BABE, size: 0x8, addend: 0x0, symName: _main, symObjAddr: 0xE20, symBinAddr: 0x1000049BC, symSize: 0x59C }
  - { offsetInCU: 0x1BD8A, offset: 0x1BD8A, size: 0x8, addend: 0x0, symName: __ZNSt4pairINSt7__cxx1112basic_stringIcSt11char_traitsIcESaIcEEESt13unordered_mapIS5_S5_St4hashIS5_ESt8equal_toIS5_ESaIS_IKS5_S5_EEEED1Ev, symObjAddr: 0xDF4, symBinAddr: 0x100004990, symSize: 0x2C }
  - { offsetInCU: 0x1BD97, offset: 0x1BD97, size: 0x8, addend: 0x0, symName: __ZNSt4pairINSt7__cxx1112basic_stringIcSt11char_traitsIcESaIcEEES5_ED1Ev, symObjAddr: 0xDC8, symBinAddr: 0x100004964, symSize: 0x2C }
  - { offsetInCU: 0x1BE3A, offset: 0x1BE3A, size: 0x8, addend: 0x0, symName: __ZNSt13unordered_mapINSt7__cxx1112basic_stringIcSt11char_traitsIcESaIcEEES_IS5_S5_St4hashIS5_ESt8equal_toIS5_ESaISt4pairIKS5_S5_EEES7_S9_SaISA_ISB_SE_EEED1Ev, symObjAddr: 0xDA8, symBinAddr: 0x100004944, symSize: 0x20 }
  - { offsetInCU: 0x1BE7A, offset: 0x1BE7A, size: 0x8, addend: 0x0, symName: __ZNSt13unordered_mapINSt7__cxx1112basic_stringIcSt11char_traitsIcESaIcEEES_IS5_S5_St4hashIS5_ESt8equal_toIS5_ESaISt4pairIKS5_S5_EEES7_S9_SaISA_ISB_SE_EEEC1Ev, symObjAddr: 0xD88, symBinAddr: 0x100004924, symSize: 0x20 }
  - { offsetInCU: 0x1BF54, offset: 0x1BF54, size: 0x8, addend: 0x0, symName: __ZNSt10_HashtableINSt7__cxx1112basic_stringIcSt11char_traitsIcESaIcEEESt4pairIKS5_St13unordered_mapIS5_S5_St4hashIS5_ESt8equal_toIS5_ESaIS6_IS7_S5_EEEESaISG_ENSt8__detail10_Select1stESC_SA_NSI_18_Mod_range_hashingENSI_20_Default_ranged_hashENSI_20_Prime_rehash_policyENSI_17_Hashtable_traitsILb1ELb0ELb1EEEEC1Ev, symObjAddr: 0xD18, symBinAddr: 0x1000048B4, symSize: 0x70 }
  - { offsetInCU: 0x1BF2D, offset: 0x1BF2D, size: 0x8, addend: 0x0, symName: __ZNSt8__detail16_Hashtable_allocISaINS_10_Hash_nodeISt4pairIKNSt7__cxx1112basic_stringIcSt11char_traitsIcESaIcEEESt13unordered_mapIS8_S8_St4hashIS8_ESt8equal_toIS8_ESaIS2_IS9_S8_EEEELb1EEEEED2Ev, symObjAddr: 0xCF8, symBinAddr: 0x100004894, symSize: 0x20 }
  - { offsetInCU: 0x1BF6D, offset: 0x1BF6D, size: 0x8, addend: 0x0, symName: __ZNSt8__detail16_Hashtable_allocISaINS_10_Hash_nodeISt4pairIKNSt7__cxx1112basic_stringIcSt11char_traitsIcESaIcEEESt13unordered_mapIS8_S8_St4hashIS8_ESt8equal_toIS8_ESaIS2_IS9_S8_EEEELb1EEEEEC2Ev, symObjAddr: 0xCD8, symBinAddr: 0x100004874, symSize: 0x20 }
  - { offsetInCU: 0x1BFC8, offset: 0x1BFC8, size: 0x8, addend: 0x0, symName: __ZNSt8__detail21_Hashtable_ebo_helperILi0ESaINS_10_Hash_nodeISt4pairIKNSt7__cxx1112basic_stringIcSt11char_traitsIcESaIcEEESt13unordered_mapIS8_S8_St4hashIS8_ESt8equal_toIS8_ESaIS2_IS9_S8_EEEELb1EEEELb1EED2Ev, symObjAddr: 0xCAC, symBinAddr: 0x100004848, symSize: 0x2C }
  - { offsetInCU: 0x1C074, offset: 0x1C074, size: 0x8, addend: 0x0, symName: __ZNSt8__detail15_Hashtable_baseINSt7__cxx1112basic_stringIcSt11char_traitsIcESaIcEEESt4pairIKS6_St13unordered_mapIS6_S6_St4hashIS6_ESt8equal_toIS6_ESaIS7_IS8_S6_EEEENS_10_Select1stESD_SB_NS_18_Mod_range_hashingENS_20_Default_ranged_hashENS_17_Hashtable_traitsILb1ELb0ELb1EEEEC2Ev, symObjAddr: 0xC84, symBinAddr: 0x100004820, symSize: 0x28 }
  - { offsetInCU: 0x1C090, offset: 0x1C090, size: 0x8, addend: 0x0, symName: __ZNSt8__detail15_Hash_code_baseINSt7__cxx1112basic_stringIcSt11char_traitsIcESaIcEEESt4pairIKS6_St13unordered_mapIS6_S6_St4hashIS6_ESt8equal_toIS6_ESaIS7_IS8_S6_EEEENS_10_Select1stESB_NS_18_Mod_range_hashingENS_20_Default_ranged_hashELb1EEC2Ev, symObjAddr: 0xC64, symBinAddr: 0x100004800, symSize: 0x20 }
  - { offsetInCU: 0x1C043, offset: 0x1C043, size: 0x8, addend: 0x0, symName: __ZNSt5stackINSt7__cxx1112basic_stringIcSt11char_traitsIcESaIcEEESt5dequeIS5_SaIS5_EEED1Ev, symObjAddr: 0xC44, symBinAddr: 0x1000047E0, symSize: 0x20 }
  - { offsetInCU: 0x1C05B, offset: 0x1C05B, size: 0x8, addend: 0x0, symName: __Z8getAttrsNSt7__cxx1112basic_stringIcSt11char_traitsIcESaIcEEE, symObjAddr: 0x9C8, symBinAddr: 0x100004564, symSize: 0x27C }
  - { offsetInCU: 0x1C1D5, offset: 0x1C1D5, size: 0x8, addend: 0x0, symName: __ZNSt13unordered_mapINSt7__cxx1112basic_stringIcSt11char_traitsIcESaIcEEES5_St4hashIS5_ESt8equal_toIS5_ESaISt4pairIKS5_S5_EEEC1EOSE_, symObjAddr: 0x9A0, symBinAddr: 0x10000453C, symSize: 0x28 }
  - { offsetInCU: 0x1C1F0, offset: 0x1C1F0, size: 0x8, addend: 0x0, symName: __ZNSt4pairIKNSt7__cxx1112basic_stringIcSt11char_traitsIcESaIcEEES5_ED1Ev, symObjAddr: 0x974, symBinAddr: 0x100004510, symSize: 0x2C }
  - { offsetInCU: 0x1C276, offset: 0x1C276, size: 0x8, addend: 0x0, symName: __ZNSt13unordered_mapINSt7__cxx1112basic_stringIcSt11char_traitsIcESaIcEEES5_St4hashIS5_ESt8equal_toIS5_ESaISt4pairIKS5_S5_EEED1Ev, symObjAddr: 0x954, symBinAddr: 0x1000044F0, symSize: 0x20 }
  - { offsetInCU: 0x1C2B6, offset: 0x1C2B6, size: 0x8, addend: 0x0, symName: __ZNSt13unordered_mapINSt7__cxx1112basic_stringIcSt11char_traitsIcESaIcEEES5_St4hashIS5_ESt8equal_toIS5_ESaISt4pairIKS5_S5_EEEC1Ev, symObjAddr: 0x934, symBinAddr: 0x1000044D0, symSize: 0x20 }
  - { offsetInCU: 0x1C381, offset: 0x1C381, size: 0x8, addend: 0x0, symName: __ZNSt10_HashtableINSt7__cxx1112basic_stringIcSt11char_traitsIcESaIcEEESt4pairIKS5_S5_ESaIS8_ENSt8__detail10_Select1stESt8equal_toIS5_ESt4hashIS5_ENSA_18_Mod_range_hashingENSA_20_Default_ranged_hashENSA_20_Prime_rehash_policyENSA_17_Hashtable_traitsILb1ELb0ELb1EEEEC1Ev, symObjAddr: 0x8C4, symBinAddr: 0x100004460, symSize: 0x70 }
  - { offsetInCU: 0x1C344, offset: 0x1C344, size: 0x8, addend: 0x0, symName: __ZNSt8__detail16_Hashtable_allocISaINS_10_Hash_nodeISt4pairIKNSt7__cxx1112basic_stringIcSt11char_traitsIcESaIcEEES8_ELb1EEEEED2Ev, symObjAddr: 0x8A4, symBinAddr: 0x100004440, symSize: 0x20 }
  - { offsetInCU: 0x1C384, offset: 0x1C384, size: 0x8, addend: 0x0, symName: __ZNSt8__detail16_Hashtable_allocISaINS_10_Hash_nodeISt4pairIKNSt7__cxx1112basic_stringIcSt11char_traitsIcESaIcEEES8_ELb1EEEEEC2Ev, symObjAddr: 0x884, symBinAddr: 0x100004420, symSize: 0x20 }
  - { offsetInCU: 0x1C3DF, offset: 0x1C3DF, size: 0x8, addend: 0x0, symName: __ZNSt8__detail21_Hashtable_ebo_helperILi0ESaINS_10_Hash_nodeISt4pairIKNSt7__cxx1112basic_stringIcSt11char_traitsIcESaIcEEES8_ELb1EEEELb1EED2Ev, symObjAddr: 0x858, symBinAddr: 0x1000043F4, symSize: 0x2C }
  - { offsetInCU: 0x1C4A1, offset: 0x1C4A1, size: 0x8, addend: 0x0, symName: __ZNSt8__detail15_Hashtable_baseINSt7__cxx1112basic_stringIcSt11char_traitsIcESaIcEEESt4pairIKS6_S6_ENS_10_Select1stESt8equal_toIS6_ESt4hashIS6_ENS_18_Mod_range_hashingENS_20_Default_ranged_hashENS_17_Hashtable_traitsILb1ELb0ELb1EEEEC2Ev, symObjAddr: 0x830, symBinAddr: 0x1000043CC, symSize: 0x28 }
  - { offsetInCU: 0x1C4B0, offset: 0x1C4B0, size: 0x8, addend: 0x0, symName: __ZNSt8__detail15_Hash_code_baseINSt7__cxx1112basic_stringIcSt11char_traitsIcESaIcEEESt4pairIKS6_S6_ENS_10_Select1stESt4hashIS6_ENS_18_Mod_range_hashingENS_20_Default_ranged_hashELb1EEC2Ev, symObjAddr: 0x810, symBinAddr: 0x1000043AC, symSize: 0x20 }
  - { offsetInCU: 0x1C468, offset: 0x1C468, size: 0x8, addend: 0x0, symName: __Z9removeTagNSt7__cxx1112basic_stringIcSt11char_traitsIcESaIcEEE, symObjAddr: 0x7C0, symBinAddr: 0x10000435C, symSize: 0x50 }
  - { offsetInCU: 0x1C497, offset: 0x1C497, size: 0x8, addend: 0x0, symName: __Z6getTagNSt7__cxx1112basic_stringIcSt11char_traitsIcESaIcEEE, symObjAddr: 0x774, symBinAddr: 0x100004310, symSize: 0x4C }
  - { offsetInCU: 0x1C4CE, offset: 0x1C4CE, size: 0x8, addend: 0x0, symName: __Z6lstripRKNSt7__cxx1112basic_stringIcSt11char_traitsIcESaIcEEE, symObjAddr: 0x6C4, symBinAddr: 0x100004260, symSize: 0xB0 }
  - { offsetInCU: 0x1C52A, offset: 0x1C52A, size: 0x8, addend: 0x0, symName: __ZZ6lstripRKNSt7__cxx1112basic_stringIcSt11char_traitsIcESaIcEEEENKUlhE_clEh, symObjAddr: 0x694, symBinAddr: 0x100004230, symSize: 0x30 }
  - { offsetInCU: 0x1C633, offset: 0x1C633, size: 0x8, addend: 0x0, symName: __Z6rstripRKNSt7__cxx1112basic_stringIcSt11char_traitsIcESaIcEEE, symObjAddr: 0x5D4, symBinAddr: 0x100004170, symSize: 0xC0 }
  - { offsetInCU: 0x1C68F, offset: 0x1C68F, size: 0x8, addend: 0x0, symName: __ZZ6rstripRKNSt7__cxx1112basic_stringIcSt11char_traitsIcESaIcEEEENKUlhE_clEh, symObjAddr: 0x5A4, symBinAddr: 0x100004140, symSize: 0x30 }
  - { offsetInCU: 0x1C79A, offset: 0x1C79A, size: 0x8, addend: 0x0, symName: __Z5splitRNSt7__cxx1112basic_stringIcSt11char_traitsIcESaIcEEERKS4_, symObjAddr: 0x4A0, symBinAddr: 0x10000403C, symSize: 0x104 }
  - { offsetInCU: 0x1C833, offset: 0x1C833, size: 0x8, addend: 0x0, symName: __ZNSt6vectorINSt7__cxx1112basic_stringIcSt11char_traitsIcESaIcEEESaIS5_EEC1Ev, symObjAddr: 0x480, symBinAddr: 0x10000401C, symSize: 0x20 }
  - { offsetInCU: 0x1C87A, offset: 0x1C87A, size: 0x8, addend: 0x0, symName: __ZNSt12_Vector_baseINSt7__cxx1112basic_stringIcSt11char_traitsIcESaIcEEESaIS5_EEC2Ev, symObjAddr: 0x460, symBinAddr: 0x100003FFC, symSize: 0x20 }
  - { offsetInCU: 0x1C8D5, offset: 0x1C8D5, size: 0x8, addend: 0x0, symName: __ZNSt12_Vector_baseINSt7__cxx1112basic_stringIcSt11char_traitsIcESaIcEEESaIS5_EE12_Vector_implD1Ev, symObjAddr: 0x434, symBinAddr: 0x100003FD0, symSize: 0x2C }
  - { offsetInCU: 0x1C8C9, offset: 0x1C8C9, size: 0x8, addend: 0x0, symName: __Z4fastv, symObjAddr: 0x3F0, symBinAddr: 0x100003F8C, symSize: 0x44 }
  - { offsetInCU: 0x1C8DA, offset: 0x1C8DA, size: 0x8, addend: 0x0, symName: __ZSt3minImERKT_S2_S2_, symObjAddr: 0x3B8, symBinAddr: 0x100003F54, symSize: 0x38 }
  - { offsetInCU: 0x1C920, offset: 0x1C920, size: 0x8, addend: 0x0, symName: __ZNSt8__detail20_Prime_rehash_policy8_M_resetEm, symObjAddr: 0x394, symBinAddr: 0x100003F30, symSize: 0x24 }
  - { offsetInCU: 0x1C95A, offset: 0x1C95A, size: 0x8, addend: 0x0, symName: __ZNSt8__detail20_Prime_rehash_policy8_M_resetEv, symObjAddr: 0x378, symBinAddr: 0x100003F14, symSize: 0x1C }
  - { offsetInCU: 0x1C984, offset: 0x1C984, size: 0x8, addend: 0x0, symName: __ZNKSt8__detail20_Prime_rehash_policy8_M_stateEv, symObjAddr: 0x360, symBinAddr: 0x100003EFC, symSize: 0x18 }
  - { offsetInCU: 0x1C9FB, offset: 0x1C9FB, size: 0x8, addend: 0x0, symName: __ZNSt8__detail20_Prime_rehash_policyC1Ef, symObjAddr: 0x334, symBinAddr: 0x100003ED0, symSize: 0x2C }
  - { offsetInCU: 0x1CA05, offset: 0x1CA05, size: 0x8, addend: 0x0, symName: __ZNKSt8__detail18_Mod_range_hashingclEmm, symObjAddr: 0x304, symBinAddr: 0x100003EA0, symSize: 0x30 }
  - { offsetInCU: 0x1CA9A, offset: 0x1CA9A, size: 0x8, addend: 0x0, symName: __ZNSt8__detail15_Hash_node_baseC1EPS0_, symObjAddr: 0x2E0, symBinAddr: 0x100003E7C, symSize: 0x24 }
  - { offsetInCU: 0x1CAE0, offset: 0x1CAE0, size: 0x8, addend: 0x0, symName: __ZNSt8__detail15_Hash_node_baseC1Ev, symObjAddr: 0x2C4, symBinAddr: 0x100003E60, symSize: 0x1C }
  - { offsetInCU: 0x1CB0A, offset: 0x1CB0A, size: 0x8, addend: 0x0, symName: __ZNSt8__detail15_Hash_node_baseC2Ev, symObjAddr: 0x2A8, symBinAddr: 0x100003E44, symSize: 0x1C }
  - { offsetInCU: 0x1CB0C, offset: 0x1CB0C, size: 0x8, addend: 0x0, symName: __ZSt16__deque_buf_sizem, symObjAddr: 0x278, symBinAddr: 0x100003E14, symSize: 0x30 }
  - { offsetInCU: 0x1CB35, offset: 0x1CB35, size: 0x8, addend: 0x0, symName: __ZNSt10_Hash_impl4hashEPKvmm, symObjAddr: 0x24C, symBinAddr: 0x100003DE8, symSize: 0x2C }
  - { offsetInCU: 0x1CB7E, offset: 0x1CB7E, size: 0x8, addend: 0x0, symName: __ZNSt11char_traitsIcE6lengthEPKc, symObjAddr: 0x210, symBinAddr: 0x100003DAC, symSize: 0x3C }
  - { offsetInCU: 0x1CBC1, offset: 0x1CBC1, size: 0x8, addend: 0x0, symName: __ZNSt11char_traitsIcE7compareEPKcS2_m, symObjAddr: 0x120, symBinAddr: 0x100003CBC, symSize: 0xF0 }
  - { offsetInCU: 0x1CC48, offset: 0x1CC48, size: 0x8, addend: 0x0, symName: __ZNSt11char_traitsIcE2ltERKcS2_, symObjAddr: 0xE8, symBinAddr: 0x100003C84, symSize: 0x38 }
  - { offsetInCU: 0x1CC8E, offset: 0x1CC8E, size: 0x8, addend: 0x0, symName: __ZdlPvS_, symObjAddr: 0xD0, symBinAddr: 0x100003C6C, symSize: 0x18 }
  - { offsetInCU: 0x1CCC3, offset: 0x1CCC3, size: 0x8, addend: 0x0, symName: __ZnwmPv, symObjAddr: 0xB8, symBinAddr: 0x100003C54, symSize: 0x18 }
  - { offsetInCU: 0x1CD0A, offset: 0x1CD0A, size: 0x8, addend: 0x0, symName: __Z8__istypeim, symObjAddr: 0x20, symBinAddr: 0x100003BBC, symSize: 0x78 }
  - { offsetInCU: 0x1CD4B, offset: 0x1CD4B, size: 0x8, addend: 0x0, symName: __Z7isasciii, symObjAddr: 0x0, symBinAddr: 0x100003B9C, symSize: 0x20 }
...
