---
triple:          'arm64-apple-darwin'
binary-path:     main
relocations:
  - { offsetInCU: 0xE798, offset: 0xE798, size: 0x8, addend: 0x0, symName: __ZStL8__ioinit, symObjAddr: 0x7A478, symBinAddr: 0x100010000, symSize: 0x0 }
  - { offsetInCU: 0xF259, offset: 0xF259, size: 0x8, addend: 0x0, symName: __ZNSt11__copy_moveILb0ELb0ESt26random_access_iterator_tagE12__assign_oneIPNSt7__cxx1112basic_stringIcSt11char_traitsIcESaIcEEES9_EEvPT_PT0_, symObjAddr: 0x594C, symBinAddr: 0x1000066AC, symSize: 0x28 }
  - { offsetInCU: 0xF2A3, offset: 0xF2A3, size: 0x8, addend: 0x0, symName: __ZNSt10_Head_baseILm0ERKcLb0EE7_M_headERS2_, symObjAddr: 0x5934, symBinAddr: 0x100006694, symSize: 0x18 }
  - { offsetInCU: 0xF2CA, offset: 0xF2CA, size: 0x8, addend: 0x0, symName: __ZNSt10_Head_baseILm0EOcLb0EE7_M_headERS1_, symObjAddr: 0x591C, symBinAddr: 0x10000667C, symSize: 0x18 }
  - { offsetInCU: 0xF2F1, offset: 0xF2F1, size: 0x8, addend: 0x0, symName: __ZNSt20__copy_move_backwardILb0ELb1ESt26random_access_iterator_tagE13__copy_move_bIPNSt7__cxx1112basic_stringIcSt11char_traitsIcESaIcEEES9_EEPT0_PT_SD_SB_, symObjAddr: 0x5870, symBinAddr: 0x1000065D0, symSize: 0xAC }
  - { offsetInCU: 0xF35B, offset: 0xF35B, size: 0x8, addend: 0x0, symName: __ZNSt11__copy_moveILb0ELb1ESt26random_access_iterator_tagE8__copy_mIPNSt7__cxx1112basic_stringIcSt11char_traitsIcESaIcEEES9_EEPT0_PT_SD_SB_, symObjAddr: 0x57E0, symBinAddr: 0x100006540, symSize: 0x90 }
  - { offsetInCU: 0xF3C5, offset: 0xF3C5, size: 0x8, addend: 0x0, symName: __ZNSt11_Tuple_implILm0EJRKcEE7_M_headERS2_, symObjAddr: 0x57C4, symBinAddr: 0x100006524, symSize: 0x1C }
  - { offsetInCU: 0xF3ED, offset: 0xF3ED, size: 0x8, addend: 0x0, symName: __ZNSt11_Tuple_implILm0EJOcEE7_M_headERS1_, symObjAddr: 0x57A8, symBinAddr: 0x100006508, symSize: 0x1C }
  - { offsetInCU: 0xF415, offset: 0xF415, size: 0x8, addend: 0x0, symName: __ZSt23__copy_move_backward_a2ILb0EPPNSt7__cxx1112basic_stringIcSt11char_traitsIcESaIcEEES7_ET1_T0_S9_S8_, symObjAddr: 0x577C, symBinAddr: 0x1000064DC, symSize: 0x2C }
  - { offsetInCU: 0xF479, offset: 0xF479, size: 0x8, addend: 0x0, symName: __ZSt14__copy_move_a2ILb0EPPNSt7__cxx1112basic_stringIcSt11char_traitsIcESaIcEEES7_ET1_T0_S9_S8_, symObjAddr: 0x5750, symBinAddr: 0x1000064B0, symSize: 0x2C }
  - { offsetInCU: 0xF4DD, offset: 0xF4DD, size: 0x8, addend: 0x0, symName: __ZSt12__get_helperILm0ERKcJEERT0_RSt11_Tuple_implIXT_EJS2_DpT1_EE, symObjAddr: 0x5734, symBinAddr: 0x100006494, symSize: 0x1C }
  - { offsetInCU: 0xF568, offset: 0xF568, size: 0x8, addend: 0x0, symName: __ZNSt12_Vector_baseIcSaIcEE17_Vector_impl_dataC2Ev, symObjAddr: 0x5708, symBinAddr: 0x100006468, symSize: 0x2C }
  - { offsetInCU: 0xF55B, offset: 0xF55B, size: 0x8, addend: 0x0, symName: __ZSt12__get_helperILm0EOcJEERT0_RSt11_Tuple_implIXT_EJS1_DpT1_EE, symObjAddr: 0x56EC, symBinAddr: 0x10000644C, symSize: 0x1C }
  - { offsetInCU: 0xF59B, offset: 0xF59B, size: 0x8, addend: 0x0, symName: __ZSt23__copy_move_backward_a1ILb0EPPNSt7__cxx1112basic_stringIcSt11char_traitsIcESaIcEEES7_ET1_T0_S9_S8_, symObjAddr: 0x56C0, symBinAddr: 0x100006420, symSize: 0x2C }
  - { offsetInCU: 0xF5FF, offset: 0xF5FF, size: 0x8, addend: 0x0, symName: __ZSt12__niter_wrapIPPNSt7__cxx1112basic_stringIcSt11char_traitsIcESaIcEEEET_RKS8_S8_, symObjAddr: 0x56A8, symBinAddr: 0x100006408, symSize: 0x18 }
  - { offsetInCU: 0xF639, offset: 0xF639, size: 0x8, addend: 0x0, symName: __ZSt14__copy_move_a1ILb0EPPNSt7__cxx1112basic_stringIcSt11char_traitsIcESaIcEEES7_ET1_T0_S9_S8_, symObjAddr: 0x567C, symBinAddr: 0x1000063DC, symSize: 0x2C }
  - { offsetInCU: 0xF69D, offset: 0xF69D, size: 0x8, addend: 0x0, symName: __ZSt12__niter_baseIPPNSt7__cxx1112basic_stringIcSt11char_traitsIcESaIcEEEET_S8_, symObjAddr: 0x5668, symBinAddr: 0x1000063C8, symSize: 0x14 }
  - { offsetInCU: 0xF6D4, offset: 0xF6D4, size: 0x8, addend: 0x0, symName: __ZSt7forwardIRKcEOT_RNSt16remove_referenceIS2_E4typeE, symObjAddr: 0x5654, symBinAddr: 0x1000063B4, symSize: 0x14 }
  - { offsetInCU: 0xF704, offset: 0xF704, size: 0x8, addend: 0x0, symName: __ZSt3getILm0EJRKcEERNSt13tuple_elementIXT_ESt5tupleIJDpT0_EEE4typeERS6_, symObjAddr: 0x5638, symBinAddr: 0x100006398, symSize: 0x1C }
  - { offsetInCU: 0xF74A, offset: 0xF74A, size: 0x8, addend: 0x0, symName: __ZNK9__gnu_cxx16__aligned_bufferISt4pairIKcSt6vectorIcSaIcEEEE7_M_addrEv, symObjAddr: 0x5624, symBinAddr: 0x100006384, symSize: 0x14 }
  - { offsetInCU: 0xF7B5, offset: 0xF7B5, size: 0x8, addend: 0x0, symName: __ZNSt12_Vector_baseIcSaIcEE12_Vector_implC1Ev, symObjAddr: 0x55EC, symBinAddr: 0x10000634C, symSize: 0x38 }
  - { offsetInCU: 0xF7F9, offset: 0xF7F9, size: 0x8, addend: 0x0, symName: __ZSt7forwardIOcEOT_RNSt16remove_referenceIS1_E4typeE, symObjAddr: 0x55D8, symBinAddr: 0x100006338, symSize: 0x14 }
  - { offsetInCU: 0xF829, offset: 0xF829, size: 0x8, addend: 0x0, symName: __ZSt3getILm0EJOcEERNSt13tuple_elementIXT_ESt5tupleIJDpT0_EEE4typeERS5_, symObjAddr: 0x55BC, symBinAddr: 0x10000631C, symSize: 0x1C }
  - { offsetInCU: 0xF866, offset: 0xF866, size: 0x8, addend: 0x0, symName: __ZSt22__copy_move_backward_aILb0EPPNSt7__cxx1112basic_stringIcSt11char_traitsIcESaIcEEES7_ET1_T0_S9_S8_, symObjAddr: 0x555C, symBinAddr: 0x1000062BC, symSize: 0x60 }
  - { offsetInCU: 0xF8CA, offset: 0xF8CA, size: 0x8, addend: 0x0, symName: __ZSt13__copy_move_aILb0EPPNSt7__cxx1112basic_stringIcSt11char_traitsIcESaIcEEES7_ET1_T0_S9_S8_, symObjAddr: 0x54FC, symBinAddr: 0x10000625C, symSize: 0x60 }
  - { offsetInCU: 0xF92E, offset: 0xF92E, size: 0x8, addend: 0x0, symName: __ZSt12__miter_baseIPPNSt7__cxx1112basic_stringIcSt11char_traitsIcESaIcEEEET_S8_, symObjAddr: 0x54E8, symBinAddr: 0x100006248, symSize: 0x14 }
  - { offsetInCU: 0xFA42, offset: 0xFA42, size: 0x8, addend: 0x0, symName: __ZNSt4pairIKcSt6vectorIcSaIcEEEC1IJRS0_EJLm0EEJEJEEERSt5tupleIJDpT_EERS7_IJDpT1_EESt12_Index_tupleIJXspT0_EEESG_IJXspT2_EEE, symObjAddr: 0x548C, symBinAddr: 0x1000061EC, symSize: 0x5C }
  - { offsetInCU: 0xFA39, offset: 0xFA39, size: 0x8, addend: 0x0, symName: __ZNSt11__copy_moveILb0ELb0ESt26random_access_iterator_tagE12__assign_oneIcKcEEvPT_PT0_, symObjAddr: 0x5464, symBinAddr: 0x1000061C4, symSize: 0x28 }
  - { offsetInCU: 0xFA87, offset: 0xFA87, size: 0x8, addend: 0x0, symName: __ZNK9__gnu_cxx16__aligned_bufferISt4pairIKcSt6vectorIcSaIcEEEE6_M_ptrEv, symObjAddr: 0x5448, symBinAddr: 0x1000061A8, symSize: 0x1C }
  - { offsetInCU: 0xFAB1, offset: 0xFAB1, size: 0x8, addend: 0x0, symName: __ZNSt15__new_allocatorIPNSt8__detail15_Hash_node_baseEE8allocateEmPKv, symObjAddr: 0x53CC, symBinAddr: 0x10000612C, symSize: 0x7C }
  - { offsetInCU: 0xFC17, offset: 0xFC17, size: 0x8, addend: 0x0, symName: __ZNSt4pairIKcSt6vectorIcSaIcEEEC1IJOcEJLm0EEJEJEEERSt5tupleIJDpT_EERS7_IJDpT1_EESt12_Index_tupleIJXspT0_EEESG_IJXspT2_EEE, symObjAddr: 0x5370, symBinAddr: 0x1000060D0, symSize: 0x5C }
  - { offsetInCU: 0xFC41, offset: 0xFC41, size: 0x8, addend: 0x0, symName: __ZNSt6vectorIcSaIcEEC1Ev, symObjAddr: 0x5350, symBinAddr: 0x1000060B0, symSize: 0x20 }
  - { offsetInCU: 0xFC86, offset: 0xFC86, size: 0x8, addend: 0x0, symName: __ZNSt12_Vector_baseIcSaIcEEC2Ev, symObjAddr: 0x5330, symBinAddr: 0x100006090, symSize: 0x20 }
  - { offsetInCU: 0xFC90, offset: 0xFC90, size: 0x8, addend: 0x0, symName: __ZNKSt8__detail21_Hashtable_ebo_helperILi0ESt8equal_toIcELb1EE7_M_cgetEv, symObjAddr: 0x531C, symBinAddr: 0x10000607C, symSize: 0x14 }
  - { offsetInCU: 0xFCB6, offset: 0xFCB6, size: 0x8, addend: 0x0, symName: __ZSt11__addressofINSt8__detail10_Hash_nodeISt4pairIKcSt6vectorIcSaIcEEELb0EEEEPT_RS9_, symObjAddr: 0x5308, symBinAddr: 0x100006068, symSize: 0x14 }
  - { offsetInCU: 0xFD27, offset: 0xFD27, size: 0x8, addend: 0x0, symName: __ZNSt12_Vector_baseIcSaIcEED2Ev, symObjAddr: 0x52BC, symBinAddr: 0x10000601C, symSize: 0x4C }
  - { offsetInCU: 0xFD80, offset: 0xFD80, size: 0x8, addend: 0x0, symName: __ZNSt12_Vector_baseIcSaIcEE12_Vector_implD1Ev, symObjAddr: 0x5290, symBinAddr: 0x100005FF0, symSize: 0x2C }
  - { offsetInCU: 0xFDAF, offset: 0xFDAF, size: 0x8, addend: 0x0, symName: __ZSt13copy_backwardIPPNSt7__cxx1112basic_stringIcSt11char_traitsIcESaIcEEES7_ET0_T_S9_S8_, symObjAddr: 0x5248, symBinAddr: 0x100005FA8, symSize: 0x48 }
  - { offsetInCU: 0xFE09, offset: 0xFE09, size: 0x8, addend: 0x0, symName: __ZSt4copyIPPNSt7__cxx1112basic_stringIcSt11char_traitsIcESaIcEEES7_ET0_T_S9_S8_, symObjAddr: 0x5200, symBinAddr: 0x100005F60, symSize: 0x48 }
  - { offsetInCU: 0xFF0E, offset: 0xFF0E, size: 0x8, addend: 0x0, symName: __ZNSt4pairIKcSt6vectorIcSaIcEEEC1IJRS0_EJEEESt21piecewise_construct_tSt5tupleIJDpT_EES8_IJDpT0_EE, symObjAddr: 0x51C4, symBinAddr: 0x100005F24, symSize: 0x3C }
  - { offsetInCU: 0xFF49, offset: 0xFF49, size: 0x8, addend: 0x0, symName: __ZNSt11_Tuple_implILm0EJRKcEEC2EOS2_, symObjAddr: 0x519C, symBinAddr: 0x100005EFC, symSize: 0x28 }
  - { offsetInCU: 0xFF53, offset: 0xFF53, size: 0x8, addend: 0x0, symName: __ZNSt11__copy_moveILb0ELb1ESt26random_access_iterator_tagE8__copy_mIKccEEPT0_PT_S7_S5_, symObjAddr: 0x5118, symBinAddr: 0x100005E78, symSize: 0x84 }
  - { offsetInCU: 0xFFC3, offset: 0xFFC3, size: 0x8, addend: 0x0, symName: __ZSt7forwardIRKSt4pairIKcSt6vectorIcSaIcEEEEOT_RNSt16remove_referenceIS8_E4typeE, symObjAddr: 0x5104, symBinAddr: 0x100005E64, symSize: 0x14 }
  - { offsetInCU: 0x10007, offset: 0x10007, size: 0x8, addend: 0x0, symName: __ZSt12__to_addressIPNSt8__detail15_Hash_node_baseEEPT_S4_, symObjAddr: 0x50F0, symBinAddr: 0x100005E50, symSize: 0x14 }
  - { offsetInCU: 0x10104, offset: 0x10104, size: 0x8, addend: 0x0, symName: __ZNSt4pairIKcSt6vectorIcSaIcEEEC1IJOcEJEEESt21piecewise_construct_tSt5tupleIJDpT_EES8_IJDpT0_EE, symObjAddr: 0x50B4, symBinAddr: 0x100005E14, symSize: 0x3C }
  - { offsetInCU: 0x10140, offset: 0x10140, size: 0x8, addend: 0x0, symName: __ZNSt11_Tuple_implILm0EJOcEEC2EOS1_, symObjAddr: 0x508C, symBinAddr: 0x100005DEC, symSize: 0x28 }
  - { offsetInCU: 0x1014F, offset: 0x1014F, size: 0x8, addend: 0x0, symName: __ZNKSt8equal_toIcEclERKcS2_, symObjAddr: 0x5058, symBinAddr: 0x100005DB8, symSize: 0x34 }
  - { offsetInCU: 0x10199, offset: 0x10199, size: 0x8, addend: 0x0, symName: __ZNKSt8__detail15_Hashtable_baseIcSt4pairIKcSt6vectorIcSaIcEEENS_10_Select1stESt8equal_toIcESt4hashIcENS_18_Mod_range_hashingENS_20_Default_ranged_hashENS_17_Hashtable_traitsILb0ELb0ELb1EEEE5_M_eqEv, symObjAddr: 0x503C, symBinAddr: 0x100005D9C, symSize: 0x1C }
  - { offsetInCU: 0x101BF, offset: 0x101BF, size: 0x8, addend: 0x0, symName: __ZSt11__addressofIPNSt8__detail15_Hash_node_baseEEPT_RS3_, symObjAddr: 0x5028, symBinAddr: 0x100005D88, symSize: 0x14 }
  - { offsetInCU: 0x101EF, offset: 0x101EF, size: 0x8, addend: 0x0, symName: __ZSt9addressofINSt8__detail10_Hash_nodeISt4pairIKcSt6vectorIcSaIcEEELb0EEEEPT_RS9_, symObjAddr: 0x500C, symBinAddr: 0x100005D6C, symSize: 0x1C }
  - { offsetInCU: 0x10259, offset: 0x10259, size: 0x8, addend: 0x0, symName: __ZNSt6vectorIcSaIcEED1Ev, symObjAddr: 0x4FB0, symBinAddr: 0x100005D10, symSize: 0x5C }
  - { offsetInCU: 0x1029C, offset: 0x1029C, size: 0x8, addend: 0x0, symName: __ZSt19__relocate_object_aINSt7__cxx1112basic_stringIcSt11char_traitsIcESaIcEEES5_SaIS5_EEvPT_PT0_RT1_, symObjAddr: 0x4EE0, symBinAddr: 0x100005C40, symSize: 0xD0 }
  - { offsetInCU: 0x103E4, offset: 0x103E4, size: 0x8, addend: 0x0, symName: __ZNSt5dequeINSt7__cxx1112basic_stringIcSt11char_traitsIcESaIcEEESaIS5_EE17_M_reallocate_mapEmb, symObjAddr: 0x4C9C, symBinAddr: 0x1000059FC, symSize: 0x244 }
  - { offsetInCU: 0x1048E, offset: 0x1048E, size: 0x8, addend: 0x0, symName: __ZNSt5dequeINSt7__cxx1112basic_stringIcSt11char_traitsIcESaIcEEESaIS5_EE11_S_max_sizeERKS6_, symObjAddr: 0x4C48, symBinAddr: 0x1000059A8, symSize: 0x54 }
  - { offsetInCU: 0x10547, offset: 0x10547, size: 0x8, addend: 0x0, symName: __ZStmiRKSt15_Deque_iteratorINSt7__cxx1112basic_stringIcSt11char_traitsIcESaIcEEERS5_PS5_ESA_, symObjAddr: 0x4BB4, symBinAddr: 0x100005914, symSize: 0x94 }
  - { offsetInCU: 0x10616, offset: 0x10616, size: 0x8, addend: 0x0, symName: __ZNSt5tupleIJRKcEEC1EOS2_, symObjAddr: 0x4B8C, symBinAddr: 0x1000058EC, symSize: 0x28 }
  - { offsetInCU: 0x10643, offset: 0x10643, size: 0x8, addend: 0x0, symName: __ZNSt15__new_allocatorIPNSt7__cxx1112basic_stringIcSt11char_traitsIcESaIcEEEE8allocateEmPKv, symObjAddr: 0x4B10, symBinAddr: 0x100005870, symSize: 0x7C }
  - { offsetInCU: 0x106C8, offset: 0x106C8, size: 0x8, addend: 0x0, symName: __ZSt14__copy_move_a2ILb0EPKcPcET1_T0_S4_S3_, symObjAddr: 0x4AE4, symBinAddr: 0x100005844, symSize: 0x2C }
  - { offsetInCU: 0x10730, offset: 0x10730, size: 0x8, addend: 0x0, symName: __ZNSt15__new_allocatorIcE8allocateEmPKv, symObjAddr: 0x4A80, symBinAddr: 0x1000057E0, symSize: 0x64 }
  - { offsetInCU: 0x107D8, offset: 0x107D8, size: 0x8, addend: 0x0, symName: __ZNKSt8__detail10_Select1stclIRKSt4pairIKcSt6vectorIcSaIcEEEEEONS0_10__1st_typeIT_E4typeEOSB_, symObjAddr: 0x4A60, symBinAddr: 0x1000057C0, symSize: 0x20 }
  - { offsetInCU: 0x1082E, offset: 0x1082E, size: 0x8, addend: 0x0, symName: __ZNSt8__detail16_Hashtable_allocISaINS_10_Hash_nodeISt4pairIKcSt6vectorIcSaIcEEELb0EEEEE19_M_allocate_bucketsEm, symObjAddr: 0x49B0, symBinAddr: 0x100005710, symSize: 0xB0 }
  - { offsetInCU: 0x10951, offset: 0x10951, size: 0x8, addend: 0x0, symName: __ZNSt15__new_allocatorINSt8__detail10_Hash_nodeISt4pairIKcSt6vectorIcSaIcEEELb0EEEE10deallocateEPS8_m, symObjAddr: 0x4974, symBinAddr: 0x1000056D4, symSize: 0x3C }
  - { offsetInCU: 0x10A1F, offset: 0x10A1F, size: 0x8, addend: 0x0, symName: __ZNSt5tupleIJOcEEC1EOS1_, symObjAddr: 0x494C, symBinAddr: 0x1000056AC, symSize: 0x28 }
  - { offsetInCU: 0x10A39, offset: 0x10A39, size: 0x8, addend: 0x0, symName: __ZNSt15__new_allocatorINSt8__detail10_Hash_nodeISt4pairIKcSt6vectorIcSaIcEEELb0EEEE8allocateEmPKv, symObjAddr: 0x48BC, symBinAddr: 0x10000561C, symSize: 0x90 }
  - { offsetInCU: 0x10B13, offset: 0x10B13, size: 0x8, addend: 0x0, symName: __ZNSt10_Head_baseILm0EOcLb0EEC2IcEEOT_, symObjAddr: 0x488C, symBinAddr: 0x1000055EC, symSize: 0x30 }
  - { offsetInCU: 0x10B2D, offset: 0x10B2D, size: 0x8, addend: 0x0, symName: __ZN9__gnu_cxx16__aligned_bufferISt4pairIKcSt6vectorIcSaIcEEEE7_M_addrEv, symObjAddr: 0x4878, symBinAddr: 0x1000055D8, symSize: 0x14 }
  - { offsetInCU: 0x10B56, offset: 0x10B56, size: 0x8, addend: 0x0, symName: __ZNKSt8__detail15_Hashtable_baseIcSt4pairIKcSt6vectorIcSaIcEEENS_10_Select1stESt8equal_toIcESt4hashIcENS_18_Mod_range_hashingENS_20_Default_ranged_hashENS_17_Hashtable_traitsILb0ELb0ELb1EEEE13_M_key_equalsERS2_RKNS_16_Hash_node_valueIS6_Lb0EEE, symObjAddr: 0x480C, symBinAddr: 0x10000556C, symSize: 0x6C }
  - { offsetInCU: 0x10BE4, offset: 0x10BE4, size: 0x8, addend: 0x0, symName: __ZNSt8__detail15_Hashtable_baseIcSt4pairIKcSt6vectorIcSaIcEEENS_10_Select1stESt8equal_toIcESt4hashIcENS_18_Mod_range_hashingENS_20_Default_ranged_hashENS_17_Hashtable_traitsILb0ELb0ELb1EEEE9_S_equalsEmRKNS_21_Hash_node_code_cacheILb0EEE, symObjAddr: 0x47F4, symBinAddr: 0x100005554, symSize: 0x18 }
  - { offsetInCU: 0x10C12, offset: 0x10C12, size: 0x8, addend: 0x0, symName: __ZNSt15__new_allocatorIPNSt8__detail15_Hash_node_baseEE10deallocateEPS2_m, symObjAddr: 0x47C4, symBinAddr: 0x100005524, symSize: 0x30 }
  - { offsetInCU: 0x10CB3, offset: 0x10CB3, size: 0x8, addend: 0x0, symName: __ZNSt15__new_allocatorIPNSt8__detail15_Hash_node_baseEED2Ev, symObjAddr: 0x47B0, symBinAddr: 0x100005510, symSize: 0x14 }
  - { offsetInCU: 0x10CB1, offset: 0x10CB1, size: 0x8, addend: 0x0, symName: __ZSt9addressofIPNSt8__detail15_Hash_node_baseEEPT_RS3_, symObjAddr: 0x4794, symBinAddr: 0x1000054F4, symSize: 0x1C }
  - { offsetInCU: 0x10CE1, offset: 0x10CE1, size: 0x8, addend: 0x0, symName: __ZNSt19__ptr_traits_ptr_toIPNSt8__detail10_Hash_nodeISt4pairIKcSt6vectorIcSaIcEEELb0EEES8_Lb0EE10pointer_toERS8_, symObjAddr: 0x4778, symBinAddr: 0x1000054D8, symSize: 0x1C }
  - { offsetInCU: 0x10D7C, offset: 0x10D7C, size: 0x8, addend: 0x0, symName: __ZNSt4pairIKcSt6vectorIcSaIcEEED1Ev, symObjAddr: 0x4754, symBinAddr: 0x1000054B4, symSize: 0x24 }
  - { offsetInCU: 0x10D82, offset: 0x10D82, size: 0x8, addend: 0x0, symName: __ZNSt8__detail21_Hashtable_ebo_helperILi0ESaINS_10_Hash_nodeISt4pairIKcSt6vectorIcSaIcEEELb0EEEELb1EE6_M_getEv, symObjAddr: 0x4740, symBinAddr: 0x1000054A0, symSize: 0x14 }
  - { offsetInCU: 0x10DA8, offset: 0x10DA8, size: 0x8, addend: 0x0, symName: __ZSt14__relocate_a_1IPNSt7__cxx1112basic_stringIcSt11char_traitsIcESaIcEEES6_SaIS5_EET0_T_S9_S8_RT1_, symObjAddr: 0x46BC, symBinAddr: 0x10000541C, symSize: 0x84 }
  - { offsetInCU: 0x10E2B, offset: 0x10E2B, size: 0x8, addend: 0x0, symName: __ZSt12__niter_baseIPNSt7__cxx1112basic_stringIcSt11char_traitsIcESaIcEEEET_S7_, symObjAddr: 0x46A8, symBinAddr: 0x100005408, symSize: 0x14 }
  - { offsetInCU: 0x10E60, offset: 0x10E60, size: 0x8, addend: 0x0, symName: __ZNSt15__new_allocatorINSt7__cxx1112basic_stringIcSt11char_traitsIcESaIcEEEE8allocateEmPKv, symObjAddr: 0x462C, symBinAddr: 0x10000538C, symSize: 0x7C }
  - { offsetInCU: 0x10EE9, offset: 0x10EE9, size: 0x8, addend: 0x0, symName: __ZNKSt12_Vector_baseINSt7__cxx1112basic_stringIcSt11char_traitsIcESaIcEEESaIS5_EE19_M_get_Tp_allocatorEv, symObjAddr: 0x4618, symBinAddr: 0x100005378, symSize: 0x14 }
  - { offsetInCU: 0x10F0F, offset: 0x10F0F, size: 0x8, addend: 0x0, symName: __ZNSt6vectorINSt7__cxx1112basic_stringIcSt11char_traitsIcESaIcEEESaIS5_EE11_S_max_sizeERKS6_, symObjAddr: 0x45C4, symBinAddr: 0x100005324, symSize: 0x54 }
  - { offsetInCU: 0x10FC2, offset: 0x10FC2, size: 0x8, addend: 0x0, symName: __ZSt8_DestroyINSt7__cxx1112basic_stringIcSt11char_traitsIcESaIcEEEEvPT_, symObjAddr: 0x45A4, symBinAddr: 0x100005304, symSize: 0x20 }
  - { offsetInCU: 0x10FF2, offset: 0x10FF2, size: 0x8, addend: 0x0, symName: __ZSt11__addressofINSt7__cxx1112basic_stringIcSt11char_traitsIcESaIcEEEEPT_RS6_, symObjAddr: 0x4590, symBinAddr: 0x1000052F0, symSize: 0x14 }
  - { offsetInCU: 0x11026, offset: 0x11026, size: 0x8, addend: 0x0, symName: __ZNSt15_Deque_iteratorINSt7__cxx1112basic_stringIcSt11char_traitsIcESaIcEEERS5_PS5_EmmEv, symObjAddr: 0x4524, symBinAddr: 0x100005284, symSize: 0x6C }
  - { offsetInCU: 0x11050, offset: 0x11050, size: 0x8, addend: 0x0, symName: __ZNSt5dequeINSt7__cxx1112basic_stringIcSt11char_traitsIcESaIcEEESaIS5_EE22_M_reserve_map_at_backEm, symObjAddr: 0x44C4, symBinAddr: 0x100005224, symSize: 0x60 }
  - { offsetInCU: 0x1108A, offset: 0x1108A, size: 0x8, addend: 0x0, symName: __ZNKSt5dequeINSt7__cxx1112basic_stringIcSt11char_traitsIcESaIcEEESaIS5_EE8max_sizeEv, symObjAddr: 0x44A4, symBinAddr: 0x100005204, symSize: 0x20 }
  - { offsetInCU: 0x110B4, offset: 0x110B4, size: 0x8, addend: 0x0, symName: __ZNKSt5dequeINSt7__cxx1112basic_stringIcSt11char_traitsIcESaIcEEESaIS5_EE4sizeEv, symObjAddr: 0x4474, symBinAddr: 0x1000051D4, symSize: 0x30 }
  - { offsetInCU: 0x111BC, offset: 0x111BC, size: 0x8, addend: 0x0, symName: __ZNSt10_Head_baseILm0ERKcLb0EEC2ES1_, symObjAddr: 0x4450, symBinAddr: 0x1000051B0, symSize: 0x24 }
  - { offsetInCU: 0x111CA, offset: 0x111CA, size: 0x8, addend: 0x0, symName: __ZNSt15__new_allocatorIPNSt7__cxx1112basic_stringIcSt11char_traitsIcESaIcEEEE10deallocateEPS6_m, symObjAddr: 0x4420, symBinAddr: 0x100005180, symSize: 0x30 }
  - { offsetInCU: 0x11281, offset: 0x11281, size: 0x8, addend: 0x0, symName: __ZNSt15__new_allocatorIPNSt7__cxx1112basic_stringIcSt11char_traitsIcESaIcEEEED2Ev, symObjAddr: 0x440C, symBinAddr: 0x10000516C, symSize: 0x14 }
  - { offsetInCU: 0x1127B, offset: 0x1127B, size: 0x8, addend: 0x0, symName: __ZNKSt11_Deque_baseINSt7__cxx1112basic_stringIcSt11char_traitsIcESaIcEEESaIS5_EE19_M_get_Tp_allocatorEv, symObjAddr: 0x43F8, symBinAddr: 0x100005158, symSize: 0x14 }
  - { offsetInCU: 0x112A2, offset: 0x112A2, size: 0x8, addend: 0x0, symName: __ZNSt15_Deque_iteratorINSt7__cxx1112basic_stringIcSt11char_traitsIcESaIcEEERS5_PS5_E14_S_buffer_sizeEv, symObjAddr: 0x43E0, symBinAddr: 0x100005140, symSize: 0x18 }
  - { offsetInCU: 0x112BD, offset: 0x112BD, size: 0x8, addend: 0x0, symName: __ZNSt11_Deque_baseINSt7__cxx1112basic_stringIcSt11char_traitsIcESaIcEEESaIS5_EE16_M_allocate_nodeEv, symObjAddr: 0x439C, symBinAddr: 0x1000050FC, symSize: 0x44 }
  - { offsetInCU: 0x113A5, offset: 0x113A5, size: 0x8, addend: 0x0, symName: __ZNSt15_Deque_iteratorINSt7__cxx1112basic_stringIcSt11char_traitsIcESaIcEEERS5_PS5_EC1Ev, symObjAddr: 0x4368, symBinAddr: 0x1000050C8, symSize: 0x34 }
  - { offsetInCU: 0x11372, offset: 0x11372, size: 0x8, addend: 0x0, symName: __ZNSt20__uninitialized_copyILb1EE13__uninit_copyIPKcPcEET0_T_S6_S5_, symObjAddr: 0x433C, symBinAddr: 0x10000509C, symSize: 0x2C }
  - { offsetInCU: 0x113C9, offset: 0x113C9, size: 0x8, addend: 0x0, symName: __ZSt12__niter_wrapIPcET_RKS1_S1_, symObjAddr: 0x4324, symBinAddr: 0x100005084, symSize: 0x18 }
  - { offsetInCU: 0x11403, offset: 0x11403, size: 0x8, addend: 0x0, symName: __ZSt14__copy_move_a1ILb0EPKcPcET1_T0_S4_S3_, symObjAddr: 0x42F8, symBinAddr: 0x100005058, symSize: 0x2C }
  - { offsetInCU: 0x11467, offset: 0x11467, size: 0x8, addend: 0x0, symName: __ZSt12__niter_baseIPcET_S1_, symObjAddr: 0x42E4, symBinAddr: 0x100005044, symSize: 0x14 }
  - { offsetInCU: 0x11498, offset: 0x11498, size: 0x8, addend: 0x0, symName: __ZSt12__niter_baseIPKcET_S2_, symObjAddr: 0x42D0, symBinAddr: 0x100005030, symSize: 0x14 }
  - { offsetInCU: 0x114C9, offset: 0x114C9, size: 0x8, addend: 0x0, symName: __ZNSt12_Destroy_auxILb1EE9__destroyIPcEEvT_S3_, symObjAddr: 0x42B8, symBinAddr: 0x100005018, symSize: 0x18 }
  - { offsetInCU: 0x115BF, offset: 0x115BF, size: 0x8, addend: 0x0, symName: __ZNSt8__detail19_Node_iterator_baseISt4pairIKcSt6vectorIcSaIcEEELb0EEC2EPNS_10_Hash_nodeIS6_Lb0EEE, symObjAddr: 0x4294, symBinAddr: 0x100004FF4, symSize: 0x24 }
  - { offsetInCU: 0x1158F, offset: 0x1158F, size: 0x8, addend: 0x0, symName: __ZNKSt8__detail15_Hash_code_baseIcSt4pairIKcSt6vectorIcSaIcEEENS_10_Select1stESt4hashIcENS_18_Mod_range_hashingENS_20_Default_ranged_hashELb0EE15_M_bucket_indexERKNS_16_Hash_node_valueIS6_Lb0EEEm, symObjAddr: 0x4230, symBinAddr: 0x100004F90, symSize: 0x64 }
  - { offsetInCU: 0x11621, offset: 0x11621, size: 0x8, addend: 0x0, symName: __ZNSt10_HashtableIcSt4pairIKcSt6vectorIcSaIcEEESaIS5_ENSt8__detail10_Select1stESt8equal_toIcESt4hashIcENS7_18_Mod_range_hashingENS7_20_Default_ranged_hashENS7_20_Prime_rehash_policyENS7_17_Hashtable_traitsILb0ELb0ELb1EEEE19_M_allocate_bucketsEm, symObjAddr: 0x41D8, symBinAddr: 0x100004F38, symSize: 0x58 }
  - { offsetInCU: 0x11657, offset: 0x11657, size: 0x8, addend: 0x0, symName: __ZSt11__addressofINSt8__detail20_Prime_rehash_policyEEPT_RS2_, symObjAddr: 0x41C4, symBinAddr: 0x100004F24, symSize: 0x14 }
  - { offsetInCU: 0x11711, offset: 0x11711, size: 0x8, addend: 0x0, symName: __ZSt12__to_addressINSt8__detail10_Hash_nodeISt4pairIKcSt6vectorIcSaIcEEELb0EEEEPT_SA_, symObjAddr: 0x41B0, symBinAddr: 0x100004F10, symSize: 0x14 }
  - { offsetInCU: 0x117BA, offset: 0x117BA, size: 0x8, addend: 0x0, symName: __ZNSt11_Tuple_implILm0EJOcEEC2IcEEOT_, symObjAddr: 0x4174, symBinAddr: 0x100004ED4, symSize: 0x3C }
  - { offsetInCU: 0x117D0, offset: 0x117D0, size: 0x8, addend: 0x0, symName: __ZN9__gnu_cxx16__aligned_bufferISt4pairIKcSt6vectorIcSaIcEEEE6_M_ptrEv, symObjAddr: 0x4158, symBinAddr: 0x100004EB8, symSize: 0x1C }
  - { offsetInCU: 0x117FA, offset: 0x117FA, size: 0x8, addend: 0x0, symName: __ZNKSt10_HashtableIcSt4pairIKcSt6vectorIcSaIcEEESaIS5_ENSt8__detail10_Select1stESt8equal_toIcESt4hashIcENS7_18_Mod_range_hashingENS7_20_Default_ranged_hashENS7_20_Prime_rehash_policyENS7_17_Hashtable_traitsILb0ELb0ELb1EEEE15_M_bucket_indexERKNS7_16_Hash_node_valueIS5_Lb0EEE, symObjAddr: 0x4128, symBinAddr: 0x100004E88, symSize: 0x30 }
  - { offsetInCU: 0x11834, offset: 0x11834, size: 0x8, addend: 0x0, symName: __ZNKSt8__detail15_Hashtable_baseIcSt4pairIKcSt6vectorIcSaIcEEENS_10_Select1stESt8equal_toIcESt4hashIcENS_18_Mod_range_hashingENS_20_Default_ranged_hashENS_17_Hashtable_traitsILb0ELb0ELb1EEEE9_M_equalsERS2_mRKNS_16_Hash_node_valueIS6_Lb0EEE, symObjAddr: 0x40C8, symBinAddr: 0x100004E28, symSize: 0x60 }
  - { offsetInCU: 0x1188E, offset: 0x1188E, size: 0x8, addend: 0x0, symName: __ZNKSt8__detail21_Hashtable_ebo_helperILi1ESt4hashIcELb1EE7_M_cgetEv, symObjAddr: 0x40B4, symBinAddr: 0x100004E14, symSize: 0x14 }
  - { offsetInCU: 0x11925, offset: 0x11925, size: 0x8, addend: 0x0, symName: __ZNSt19__ptr_traits_ptr_toIPPNSt8__detail15_Hash_node_baseES2_Lb0EE10pointer_toERS2_, symObjAddr: 0x4098, symBinAddr: 0x100004DF8, symSize: 0x1C }
  - { offsetInCU: 0x11950, offset: 0x11950, size: 0x8, addend: 0x0, symName: __ZNSt8__detail16_Hashtable_allocISaINS_10_Hash_nodeISt4pairIKcSt6vectorIcSaIcEEELb0EEEEE22_M_deallocate_node_ptrEPS8_, symObjAddr: 0x4040, symBinAddr: 0x100004DA0, symSize: 0x58 }
  - { offsetInCU: 0x119FD, offset: 0x119FD, size: 0x8, addend: 0x0, symName: __ZNSt8__detail16_Hashtable_allocISaINS_10_Hash_nodeISt4pairIKcSt6vectorIcSaIcEEELb0EEEEE17_M_node_allocatorEv, symObjAddr: 0x4024, symBinAddr: 0x100004D84, symSize: 0x1C }
  - { offsetInCU: 0x11A27, offset: 0x11A27, size: 0x8, addend: 0x0, symName: __ZNSt15__new_allocatorIcE10deallocateEPcm, symObjAddr: 0x3FFC, symBinAddr: 0x100004D5C, symSize: 0x28 }
  - { offsetInCU: 0x11A6B, offset: 0x11A6B, size: 0x8, addend: 0x0, symName: __ZSt12__relocate_aIPNSt7__cxx1112basic_stringIcSt11char_traitsIcESaIcEEES6_SaIS5_EET0_T_S9_S8_RT1_, symObjAddr: 0x3FA0, symBinAddr: 0x100004D00, symSize: 0x5C }
  - { offsetInCU: 0x11B06, offset: 0x11B06, size: 0x8, addend: 0x0, symName: __ZNKSt6vectorINSt7__cxx1112basic_stringIcSt11char_traitsIcESaIcEEESaIS5_EE4sizeEv, symObjAddr: 0x3F78, symBinAddr: 0x100004CD8, symSize: 0x28 }
  - { offsetInCU: 0x11B30, offset: 0x11B30, size: 0x8, addend: 0x0, symName: __ZNKSt6vectorINSt7__cxx1112basic_stringIcSt11char_traitsIcESaIcEEESaIS5_EE8max_sizeEv, symObjAddr: 0x3F58, symBinAddr: 0x100004CB8, symSize: 0x20 }
  - { offsetInCU: 0x11B56, offset: 0x11B56, size: 0x8, addend: 0x0, symName: __ZNSt12_Destroy_auxILb0EE9__destroyIPNSt7__cxx1112basic_stringIcSt11char_traitsIcESaIcEEEEEvT_S9_, symObjAddr: 0x3F0C, symBinAddr: 0x100004C6C, symSize: 0x4C }
  - { offsetInCU: 0x11B99, offset: 0x11B99, size: 0x8, addend: 0x0, symName: __ZNSt15__new_allocatorINSt7__cxx1112basic_stringIcSt11char_traitsIcESaIcEEEE10deallocateEPS5_m, symObjAddr: 0x3EDC, symBinAddr: 0x100004C3C, symSize: 0x30 }
  - { offsetInCU: 0x11C0B, offset: 0x11C0B, size: 0x8, addend: 0x0, symName: __ZNSt5dequeINSt7__cxx1112basic_stringIcSt11char_traitsIcESaIcEEESaIS5_EE4backEv, symObjAddr: 0x3EA8, symBinAddr: 0x100004C08, symSize: 0x34 }
  - { offsetInCU: 0x11C45, offset: 0x11C45, size: 0x8, addend: 0x0, symName: __ZNSt5dequeINSt7__cxx1112basic_stringIcSt11char_traitsIcESaIcEEESaIS5_EE16_M_push_back_auxIJS5_EEEvDpOT_, symObjAddr: 0x3D84, symBinAddr: 0x100004AE4, symSize: 0x124 }
  - { offsetInCU: 0x11D3C, offset: 0x11D3C, size: 0x8, addend: 0x0, symName: __ZSt7forwardINSt7__cxx1112basic_stringIcSt11char_traitsIcESaIcEEEEOT_RNSt16remove_referenceIS6_E4typeE, symObjAddr: 0x3D70, symBinAddr: 0x100004AD0, symSize: 0x14 }
  - { offsetInCU: 0x11D70, offset: 0x11D70, size: 0x8, addend: 0x0, symName: __ZNSt8__detail16_Hashtable_allocISaINS_10_Hash_nodeISt4pairIKcSt6vectorIcSaIcEEELb0EEEEE16_M_allocate_nodeIJRKSt21piecewise_construct_tSt5tupleIJRS3_EESF_IJEEEEEPS8_DpOT_, symObjAddr: 0x3B84, symBinAddr: 0x1000048E4, symSize: 0x1EC }
  - { offsetInCU: 0x11F21, offset: 0x11F21, size: 0x8, addend: 0x0, symName: __ZSt7forwardISt5tupleIJRKcEEEOT_RNSt16remove_referenceIS4_E4typeE, symObjAddr: 0x3B70, symBinAddr: 0x1000048D0, symSize: 0x14 }
  - { offsetInCU: 0x11F9B, offset: 0x11F9B, size: 0x8, addend: 0x0, symName: __ZNSt11_Tuple_implILm0EJRKcEEC2ES1_, symObjAddr: 0x3B48, symBinAddr: 0x1000048A8, symSize: 0x28 }
  - { offsetInCU: 0x11FA7, offset: 0x11FA7, size: 0x8, addend: 0x0, symName: __ZNSt5dequeINSt7__cxx1112basic_stringIcSt11char_traitsIcESaIcEEESaIS5_EE14_S_buffer_sizeEv, symObjAddr: 0x3B30, symBinAddr: 0x100004890, symSize: 0x18 }
  - { offsetInCU: 0x12011, offset: 0x12011, size: 0x8, addend: 0x0, symName: __ZNKSt11_Deque_baseINSt7__cxx1112basic_stringIcSt11char_traitsIcESaIcEEESaIS5_EE20_M_get_map_allocatorEv, symObjAddr: 0x3AE8, symBinAddr: 0x100004848, symSize: 0x48 }
  - { offsetInCU: 0x1208B, offset: 0x1208B, size: 0x8, addend: 0x0, symName: __ZNSt11_Deque_baseINSt7__cxx1112basic_stringIcSt11char_traitsIcESaIcEEESaIS5_EE18_M_deallocate_nodeEPS5_, symObjAddr: 0x3A90, symBinAddr: 0x1000047F0, symSize: 0x58 }
  - { offsetInCU: 0x120FB, offset: 0x120FB, size: 0x8, addend: 0x0, symName: __ZNSt15_Deque_iteratorINSt7__cxx1112basic_stringIcSt11char_traitsIcESaIcEEERS5_PS5_E11_M_set_nodeEPS7_, symObjAddr: 0x3A34, symBinAddr: 0x100004794, symSize: 0x5C }
  - { offsetInCU: 0x12135, offset: 0x12135, size: 0x8, addend: 0x0, symName: __ZNSt11_Deque_baseINSt7__cxx1112basic_stringIcSt11char_traitsIcESaIcEEESaIS5_EE15_M_create_nodesEPPS5_S9_, symObjAddr: 0x39A8, symBinAddr: 0x100004708, symSize: 0x8C }
  - { offsetInCU: 0x1218F, offset: 0x1218F, size: 0x8, addend: 0x0, symName: __ZNSt11_Deque_baseINSt7__cxx1112basic_stringIcSt11char_traitsIcESaIcEEESaIS5_EE15_M_allocate_mapEm, symObjAddr: 0x3928, symBinAddr: 0x100004688, symSize: 0x80 }
  - { offsetInCU: 0x122BF, offset: 0x122BF, size: 0x8, addend: 0x0, symName: __ZNSt11_Deque_baseINSt7__cxx1112basic_stringIcSt11char_traitsIcESaIcEEESaIS5_EE16_Deque_impl_dataC2Ev, symObjAddr: 0x38E8, symBinAddr: 0x100004648, symSize: 0x40 }
  - { offsetInCU: 0x1227F, offset: 0x1227F, size: 0x8, addend: 0x0, symName: __ZSt18uninitialized_copyIPKcPcET0_T_S4_S3_, symObjAddr: 0x38AC, symBinAddr: 0x10000460C, symSize: 0x3C }
  - { offsetInCU: 0x122FC, offset: 0x122FC, size: 0x8, addend: 0x0, symName: __ZSt9__advanceIPKclEvRT_T0_St26random_access_iterator_tag, symObjAddr: 0x3878, symBinAddr: 0x1000045D8, symSize: 0x34 }
  - { offsetInCU: 0x1234D, offset: 0x1234D, size: 0x8, addend: 0x0, symName: __ZSt13__copy_move_aILb0EPKcPcET1_T0_S4_S3_, symObjAddr: 0x3818, symBinAddr: 0x100004578, symSize: 0x60 }
  - { offsetInCU: 0x123B1, offset: 0x123B1, size: 0x8, addend: 0x0, symName: __ZSt12__miter_baseIPKcET_S2_, symObjAddr: 0x3804, symBinAddr: 0x100004564, symSize: 0x14 }
  - { offsetInCU: 0x123E2, offset: 0x123E2, size: 0x8, addend: 0x0, symName: __ZSt8_DestroyIPcEvT_S1_, symObjAddr: 0x37DC, symBinAddr: 0x10000453C, symSize: 0x28 }
  - { offsetInCU: 0x12425, offset: 0x12425, size: 0x8, addend: 0x0, symName: __ZNSt12_Vector_baseIcSaIcEE11_M_allocateEm, symObjAddr: 0x378C, symBinAddr: 0x1000044EC, symSize: 0x50 }
  - { offsetInCU: 0x12488, offset: 0x12488, size: 0x8, addend: 0x0, symName: __ZNSt6vectorIcSaIcEE11_S_max_sizeERKS0_, symObjAddr: 0x3738, symBinAddr: 0x100004498, symSize: 0x54 }
  - { offsetInCU: 0x125C3, offset: 0x125C3, size: 0x8, addend: 0x0, symName: __ZNSt8__detail14_Node_iteratorISt4pairIKcSt6vectorIcSaIcEEELb0ELb0EEC1EPNS_10_Hash_nodeIS6_Lb0EEE, symObjAddr: 0x3710, symBinAddr: 0x100004470, symSize: 0x28 }
  - { offsetInCU: 0x12594, offset: 0x12594, size: 0x8, addend: 0x0, symName: __ZNSt10_HashtableIcSt4pairIKcSt6vectorIcSaIcEEESaIS5_ENSt8__detail10_Select1stESt8equal_toIcESt4hashIcENS7_18_Mod_range_hashingENS7_20_Default_ranged_hashENS7_20_Prime_rehash_policyENS7_17_Hashtable_traitsILb0ELb0ELb1EEEE22_M_insert_bucket_beginEmPNS7_10_Hash_nodeIS5_Lb0EEE, symObjAddr: 0x3604, symBinAddr: 0x100004364, symSize: 0x10C }
  - { offsetInCU: 0x125DE, offset: 0x125DE, size: 0x8, addend: 0x0, symName: __ZNKSt8__detail15_Hash_code_baseIcSt4pairIKcSt6vectorIcSaIcEEENS_10_Select1stESt4hashIcENS_18_Mod_range_hashingENS_20_Default_ranged_hashELb0EE13_M_store_codeERNS_21_Hash_node_code_cacheILb0EEEm, symObjAddr: 0x35E8, symBinAddr: 0x100004348, symSize: 0x1C }
  - { offsetInCU: 0x1261A, offset: 0x1261A, size: 0x8, addend: 0x0, symName: __ZNSt10_HashtableIcSt4pairIKcSt6vectorIcSaIcEEESaIS5_ENSt8__detail10_Select1stESt8equal_toIcESt4hashIcENS7_18_Mod_range_hashingENS7_20_Default_ranged_hashENS7_20_Prime_rehash_policyENS7_17_Hashtable_traitsILb0ELb0ELb1EEEE9_M_rehashEmSt17integral_constantIbLb1EE, symObjAddr: 0x347C, symBinAddr: 0x1000041DC, symSize: 0x16C }
  - { offsetInCU: 0x12720, offset: 0x12720, size: 0x8, addend: 0x0, symName: __ZNSt8__detail17_RehashStateGuardINS_20_Prime_rehash_policyEED1Ev, symObjAddr: 0x3438, symBinAddr: 0x100004198, symSize: 0x44 }
  - { offsetInCU: 0x1276F, offset: 0x1276F, size: 0x8, addend: 0x0, symName: __ZNSt8__detail17_RehashStateGuardINS_20_Prime_rehash_policyEEC1ERS1_, symObjAddr: 0x33F4, symBinAddr: 0x100004154, symSize: 0x44 }
  - { offsetInCU: 0x1275D, offset: 0x1275D, size: 0x8, addend: 0x0, symName: __ZNSt8__detail16_Hashtable_allocISaINS_10_Hash_nodeISt4pairIKcSt6vectorIcSaIcEEELb0EEEEE16_M_allocate_nodeIJRKSt21piecewise_construct_tSt5tupleIJOcEESF_IJEEEEEPS8_DpOT_, symObjAddr: 0x3208, symBinAddr: 0x100003F68, symSize: 0x1EC }
  - { offsetInCU: 0x12966, offset: 0x12966, size: 0x8, addend: 0x0, symName: __ZNSt8__detail10_Hash_nodeISt4pairIKcSt6vectorIcSaIcEEELb0EEC1Ev, symObjAddr: 0x31E8, symBinAddr: 0x100003F48, symSize: 0x20 }
  - { offsetInCU: 0x12951, offset: 0x12951, size: 0x8, addend: 0x0, symName: __ZSt7forwardISt5tupleIJEEEOT_RNSt16remove_referenceIS2_E4typeE, symObjAddr: 0x31D4, symBinAddr: 0x100003F34, symSize: 0x14 }
  - { offsetInCU: 0x12987, offset: 0x12987, size: 0x8, addend: 0x0, symName: __ZSt7forwardISt5tupleIJOcEEEOT_RNSt16remove_referenceIS3_E4typeE, symObjAddr: 0x31C0, symBinAddr: 0x100003F20, symSize: 0x14 }
  - { offsetInCU: 0x129BD, offset: 0x129BD, size: 0x8, addend: 0x0, symName: __ZSt7forwardIRKSt21piecewise_construct_tEOT_RNSt16remove_referenceIS3_E4typeE, symObjAddr: 0x31AC, symBinAddr: 0x100003F0C, symSize: 0x14 }
  - { offsetInCU: 0x12A4D, offset: 0x12A4D, size: 0x8, addend: 0x0, symName: __ZNSt5tupleIJOcEEC1IJcELb1ELb1EEEDpOT_, symObjAddr: 0x3170, symBinAddr: 0x100003ED0, symSize: 0x3C }
  - { offsetInCU: 0x12A77, offset: 0x12A77, size: 0x8, addend: 0x0, symName: __ZSt7forwardIcEOT_RNSt16remove_referenceIS0_E4typeE, symObjAddr: 0x315C, symBinAddr: 0x100003EBC, symSize: 0x14 }
  - { offsetInCU: 0x12ABF, offset: 0x12ABF, size: 0x8, addend: 0x0, symName: __ZNKSt10_HashtableIcSt4pairIKcSt6vectorIcSaIcEEESaIS5_ENSt8__detail10_Select1stESt8equal_toIcESt4hashIcENS7_18_Mod_range_hashingENS7_20_Default_ranged_hashENS7_20_Prime_rehash_policyENS7_17_Hashtable_traitsILb0ELb0ELb1EEEE19_M_find_before_nodeEmRS1_m, symObjAddr: 0x3060, symBinAddr: 0x100003DC0, symSize: 0xFC }
  - { offsetInCU: 0x12B4C, offset: 0x12B4C, size: 0x8, addend: 0x0, symName: __ZNKSt8__detail15_Hash_code_baseIcSt4pairIKcSt6vectorIcSaIcEEENS_10_Select1stESt4hashIcENS_18_Mod_range_hashingENS_20_Default_ranged_hashELb0EE15_M_bucket_indexEmm, symObjAddr: 0x3034, symBinAddr: 0x100003D94, symSize: 0x2C }
  - { offsetInCU: 0x12B96, offset: 0x12B96, size: 0x8, addend: 0x0, symName: __ZNKSt8__detail15_Hash_code_baseIcSt4pairIKcSt6vectorIcSaIcEEENS_10_Select1stESt4hashIcENS_18_Mod_range_hashingENS_20_Default_ranged_hashELb0EE7_M_hashEv, symObjAddr: 0x3018, symBinAddr: 0x100003D78, symSize: 0x1C }
  - { offsetInCU: 0x12BC0, offset: 0x12BC0, size: 0x8, addend: 0x0, symName: __ZNSt8__detail16_Hashtable_allocISaINS_10_Hash_nodeISt4pairIKcSt6vectorIcSaIcEEELb0EEEEE21_M_deallocate_bucketsEPPNS_15_Hash_node_baseEm, symObjAddr: 0x2FA0, symBinAddr: 0x100003D00, symSize: 0x78 }
  - { offsetInCU: 0x12CCC, offset: 0x12CCC, size: 0x8, addend: 0x0, symName: __ZNKSt10_HashtableIcSt4pairIKcSt6vectorIcSaIcEEESaIS5_ENSt8__detail10_Select1stESt8equal_toIcESt4hashIcENS7_18_Mod_range_hashingENS7_20_Default_ranged_hashENS7_20_Prime_rehash_policyENS7_17_Hashtable_traitsILb0ELb0ELb1EEEE21_M_uses_single_bucketEPPNS7_15_Hash_node_baseE, symObjAddr: 0x2F64, symBinAddr: 0x100003CC4, symSize: 0x3C }
  - { offsetInCU: 0x12D06, offset: 0x12D06, size: 0x8, addend: 0x0, symName: __ZNSt8__detail16_Hashtable_allocISaINS_10_Hash_nodeISt4pairIKcSt6vectorIcSaIcEEELb0EEEEE18_M_deallocate_nodeEPS8_, symObjAddr: 0x2EE8, symBinAddr: 0x100003C48, symSize: 0x7C }
  - { offsetInCU: 0x12DBE, offset: 0x12DBE, size: 0x8, addend: 0x0, symName: __ZNKSt8__detail10_Hash_nodeISt4pairIKcSt6vectorIcSaIcEEELb0EE7_M_nextEv, symObjAddr: 0x2ED0, symBinAddr: 0x100003C30, symSize: 0x18 }
  - { offsetInCU: 0x12E2F, offset: 0x12E2F, size: 0x8, addend: 0x0, symName: __ZNSt6vectorINSt7__cxx1112basic_stringIcSt11char_traitsIcESaIcEEESaIS5_EE11_S_relocateEPS5_S8_S8_RS6_, symObjAddr: 0x2E9C, symBinAddr: 0x100003BFC, symSize: 0x34 }
  - { offsetInCU: 0x12E87, offset: 0x12E87, size: 0x8, addend: 0x0, symName: __ZSt12__to_addressINSt7__cxx1112basic_stringIcSt11char_traitsIcESaIcEEEEPT_S7_, symObjAddr: 0x2E88, symBinAddr: 0x100003BE8, symSize: 0x14 }
  - { offsetInCU: 0x12EBB, offset: 0x12EBB, size: 0x8, addend: 0x0, symName: __ZNSt12_Vector_baseINSt7__cxx1112basic_stringIcSt11char_traitsIcESaIcEEESaIS5_EE11_M_allocateEm, symObjAddr: 0x2E38, symBinAddr: 0x100003B98, symSize: 0x50 }
  - { offsetInCU: 0x12F24, offset: 0x12F24, size: 0x8, addend: 0x0, symName: __ZN9__gnu_cxxmiIPNSt7__cxx1112basic_stringIcSt11char_traitsIcESaIcEEESt6vectorIS6_SaIS6_EEEENS_17__normal_iteratorIT_T0_E15difference_typeERKSE_SH_, symObjAddr: 0x2DF8, symBinAddr: 0x100003B58, symSize: 0x40 }
  - { offsetInCU: 0x12F72, offset: 0x12F72, size: 0x8, addend: 0x0, symName: __ZNKSt6vectorINSt7__cxx1112basic_stringIcSt11char_traitsIcESaIcEEESaIS5_EE12_M_check_lenEmPKc, symObjAddr: 0x2D28, symBinAddr: 0x100003A88, symSize: 0xD0 }
  - { offsetInCU: 0x1300E, offset: 0x1300E, size: 0x8, addend: 0x0, symName: __ZSt7forwardIRKNSt7__cxx1112basic_stringIcSt11char_traitsIcESaIcEEEEOT_RNSt16remove_referenceIS8_E4typeE, symObjAddr: 0x2D14, symBinAddr: 0x100003A74, symSize: 0x14 }
  - { offsetInCU: 0x1303E, offset: 0x1303E, size: 0x8, addend: 0x0, symName: __ZSteqRKSt15_Deque_iteratorINSt7__cxx1112basic_stringIcSt11char_traitsIcESaIcEEERS5_PS5_ESA_, symObjAddr: 0x2CE4, symBinAddr: 0x100003A44, symSize: 0x30 }
  - { offsetInCU: 0x13076, offset: 0x13076, size: 0x8, addend: 0x0, symName: __ZSt8_DestroyIPNSt7__cxx1112basic_stringIcSt11char_traitsIcESaIcEEEEvT_S7_, symObjAddr: 0x2CBC, symBinAddr: 0x100003A1C, symSize: 0x28 }
  - { offsetInCU: 0x130FF, offset: 0x130FF, size: 0x8, addend: 0x0, symName: __ZNSt5dequeINSt7__cxx1112basic_stringIcSt11char_traitsIcESaIcEEESaIS5_EE16_M_pop_front_auxEv, symObjAddr: 0x2C20, symBinAddr: 0x100003980, symSize: 0x9C }
  - { offsetInCU: 0x131B0, offset: 0x131B0, size: 0x8, addend: 0x0, symName: __ZNSt5dequeINSt7__cxx1112basic_stringIcSt11char_traitsIcESaIcEEESaIS5_EE12emplace_backIJS5_EEERS5_DpOT_, symObjAddr: 0x2B40, symBinAddr: 0x1000038A0, symSize: 0xE0 }
  - { offsetInCU: 0x1340E, offset: 0x1340E, size: 0x8, addend: 0x0, symName: __ZNSt10_HashtableIcSt4pairIKcSt6vectorIcSaIcEEESaIS5_ENSt8__detail10_Select1stESt8equal_toIcESt4hashIcENS7_18_Mod_range_hashingENS7_20_Default_ranged_hashENS7_20_Prime_rehash_policyENS7_17_Hashtable_traitsILb0ELb0ELb1EEEE12_Scoped_nodeC1IJRKSt21piecewise_construct_tSt5tupleIJRS1_EESO_IJEEEEEPNS7_16_Hashtable_allocISaINS7_10_Hash_nodeIS5_Lb0EEEEEEDpOT_, symObjAddr: 0x2AB8, symBinAddr: 0x100003818, symSize: 0x88 }
  - { offsetInCU: 0x13365, offset: 0x13365, size: 0x8, addend: 0x0, symName: __ZNSt5tupleIJRKcEEC1ILb1ELb1EEES1_, symObjAddr: 0x2A90, symBinAddr: 0x1000037F0, symSize: 0x28 }
  - { offsetInCU: 0x13395, offset: 0x13395, size: 0x8, addend: 0x0, symName: __ZNKSt15_Deque_iteratorINSt7__cxx1112basic_stringIcSt11char_traitsIcESaIcEEERS5_PS5_EdeEv, symObjAddr: 0x2A78, symBinAddr: 0x1000037D8, symSize: 0x18 }
  - { offsetInCU: 0x133BF, offset: 0x133BF, size: 0x8, addend: 0x0, symName: __ZNSt5dequeINSt7__cxx1112basic_stringIcSt11char_traitsIcESaIcEEESaIS5_EE19_M_destroy_data_auxESt15_Deque_iteratorIS5_RS5_PS5_ESB_, symObjAddr: 0x2928, symBinAddr: 0x100003688, symSize: 0x150 }
  - { offsetInCU: 0x1358C, offset: 0x1358C, size: 0x8, addend: 0x0, symName: __ZNSt15_Deque_iteratorINSt7__cxx1112basic_stringIcSt11char_traitsIcESaIcEEERS5_PS5_EC1ERKS8_, symObjAddr: 0x28D0, symBinAddr: 0x100003630, symSize: 0x58 }
  - { offsetInCU: 0x13562, offset: 0x13562, size: 0x8, addend: 0x0, symName: __ZNSt11_Deque_baseINSt7__cxx1112basic_stringIcSt11char_traitsIcESaIcEEESaIS5_EE17_M_deallocate_mapEPPS5_m, symObjAddr: 0x2870, symBinAddr: 0x1000035D0, symSize: 0x60 }
  - { offsetInCU: 0x13610, offset: 0x13610, size: 0x8, addend: 0x0, symName: __ZNSt11_Deque_baseINSt7__cxx1112basic_stringIcSt11char_traitsIcESaIcEEESaIS5_EE16_M_destroy_nodesEPPS5_S9_, symObjAddr: 0x2810, symBinAddr: 0x100003570, symSize: 0x60 }
  - { offsetInCU: 0x1367D, offset: 0x1367D, size: 0x8, addend: 0x0, symName: __ZNSt11_Deque_baseINSt7__cxx1112basic_stringIcSt11char_traitsIcESaIcEEESaIS5_EE17_M_initialize_mapEm, symObjAddr: 0x2684, symBinAddr: 0x1000033E4, symSize: 0x18C }
  - { offsetInCU: 0x1375C, offset: 0x1375C, size: 0x8, addend: 0x0, symName: __ZNSt11_Deque_baseINSt7__cxx1112basic_stringIcSt11char_traitsIcESaIcEEESaIS5_EE11_Deque_implC1Ev, symObjAddr: 0x264C, symBinAddr: 0x1000033AC, symSize: 0x38 }
  - { offsetInCU: 0x13768, offset: 0x13768, size: 0x8, addend: 0x0, symName: __ZSt22__uninitialized_copy_aIPKcPccET0_T_S4_S3_RSaIT1_E, symObjAddr: 0x261C, symBinAddr: 0x10000337C, symSize: 0x30 }
  - { offsetInCU: 0x13815, offset: 0x13815, size: 0x8, addend: 0x0, symName: __ZSt4copyIPKcPcET0_T_S4_S3_, symObjAddr: 0x25D4, symBinAddr: 0x100003334, symSize: 0x48 }
  - { offsetInCU: 0x13873, offset: 0x13873, size: 0x8, addend: 0x0, symName: __ZNSt6vectorIcSaIcEE15_M_erase_at_endEPc, symObjAddr: 0x2550, symBinAddr: 0x1000032B0, symSize: 0x84 }
  - { offsetInCU: 0x13906, offset: 0x13906, size: 0x8, addend: 0x0, symName: __ZNSt12_Vector_baseIcSaIcEE13_M_deallocateEPcm, symObjAddr: 0x24F8, symBinAddr: 0x100003258, symSize: 0x58 }
  - { offsetInCU: 0x139C1, offset: 0x139C1, size: 0x8, addend: 0x0, symName: __ZNSt6vectorIcSaIcEE20_M_allocate_and_copyIPKcEEPcmT_S6_, symObjAddr: 0x2474, symBinAddr: 0x1000031D4, symSize: 0x84 }
  - { offsetInCU: 0x13A34, offset: 0x13A34, size: 0x8, addend: 0x0, symName: __ZNSt12_Vector_baseIcSaIcEE19_M_get_Tp_allocatorEv, symObjAddr: 0x2460, symBinAddr: 0x1000031C0, symSize: 0x14 }
  - { offsetInCU: 0x13A5A, offset: 0x13A5A, size: 0x8, addend: 0x0, symName: __ZNSt6vectorIcSaIcEE17_S_check_init_lenEmRKS0_, symObjAddr: 0x23DC, symBinAddr: 0x10000313C, symSize: 0x84 }
  - { offsetInCU: 0x13B0D, offset: 0x13B0D, size: 0x8, addend: 0x0, symName: __ZNKSt6vectorIcSaIcEE8capacityEv, symObjAddr: 0x23B8, symBinAddr: 0x100003118, symSize: 0x24 }
  - { offsetInCU: 0x13B67, offset: 0x13B67, size: 0x8, addend: 0x0, symName: __ZNKSt6vectorIcSaIcEE4sizeEv, symObjAddr: 0x2394, symBinAddr: 0x1000030F4, symSize: 0x24 }
  - { offsetInCU: 0x13B91, offset: 0x13B91, size: 0x8, addend: 0x0, symName: __ZNKSt16initializer_listIcE4sizeEv, symObjAddr: 0x237C, symBinAddr: 0x1000030DC, symSize: 0x18 }
  - { offsetInCU: 0x13BBB, offset: 0x13BBB, size: 0x8, addend: 0x0, symName: __ZNKSt8__detail14_Node_iteratorISt4pairIKcSt6vectorIcSaIcEEELb0ELb0EEptEv, symObjAddr: 0x234C, symBinAddr: 0x1000030AC, symSize: 0x30 }
  - { offsetInCU: 0x13C09, offset: 0x13C09, size: 0x8, addend: 0x0, symName: __ZNSt10_HashtableIcSt4pairIKcSt6vectorIcSaIcEEESaIS5_ENSt8__detail10_Select1stESt8equal_toIcESt4hashIcENS7_18_Mod_range_hashingENS7_20_Default_ranged_hashENS7_20_Prime_rehash_policyENS7_17_Hashtable_traitsILb0ELb0ELb1EEEE21_M_insert_unique_nodeEmmPNS7_10_Hash_nodeIS5_Lb0EEEm, symObjAddr: 0x223C, symBinAddr: 0x100002F9C, symSize: 0x110 }
  - { offsetInCU: 0x13DA3, offset: 0x13DA3, size: 0x8, addend: 0x0, symName: __ZNSt10_HashtableIcSt4pairIKcSt6vectorIcSaIcEEESaIS5_ENSt8__detail10_Select1stESt8equal_toIcESt4hashIcENS7_18_Mod_range_hashingENS7_20_Default_ranged_hashENS7_20_Prime_rehash_policyENS7_17_Hashtable_traitsILb0ELb0ELb1EEEE12_Scoped_nodeD1Ev, symObjAddr: 0x21F8, symBinAddr: 0x100002F58, symSize: 0x44 }
  - { offsetInCU: 0x13E8A, offset: 0x13E8A, size: 0x8, addend: 0x0, symName: __ZNSt10_HashtableIcSt4pairIKcSt6vectorIcSaIcEEESaIS5_ENSt8__detail10_Select1stESt8equal_toIcESt4hashIcENS7_18_Mod_range_hashingENS7_20_Default_ranged_hashENS7_20_Prime_rehash_policyENS7_17_Hashtable_traitsILb0ELb0ELb1EEEE12_Scoped_nodeC1IJRKSt21piecewise_construct_tSt5tupleIJOcEESO_IJEEEEEPNS7_16_Hashtable_allocISaINS7_10_Hash_nodeIS5_Lb0EEEEEEDpOT_, symObjAddr: 0x2170, symBinAddr: 0x100002ED0, symSize: 0x88 }
  - { offsetInCU: 0x13D90, offset: 0x13D90, size: 0x8, addend: 0x0, symName: __ZSt16forward_as_tupleIJcEESt5tupleIJDpOT_EES3_, symObjAddr: 0x2138, symBinAddr: 0x100002E98, symSize: 0x38 }
  - { offsetInCU: 0x13DDB, offset: 0x13DDB, size: 0x8, addend: 0x0, symName: __ZNKSt10_HashtableIcSt4pairIKcSt6vectorIcSaIcEEESaIS5_ENSt8__detail10_Select1stESt8equal_toIcESt4hashIcENS7_18_Mod_range_hashingENS7_20_Default_ranged_hashENS7_20_Prime_rehash_policyENS7_17_Hashtable_traitsILb0ELb0ELb1EEEE12_M_find_nodeEmRS1_m, symObjAddr: 0x20E4, symBinAddr: 0x100002E44, symSize: 0x54 }
  - { offsetInCU: 0x13E45, offset: 0x13E45, size: 0x8, addend: 0x0, symName: __ZNKSt10_HashtableIcSt4pairIKcSt6vectorIcSaIcEEESaIS5_ENSt8__detail10_Select1stESt8equal_toIcESt4hashIcENS7_18_Mod_range_hashingENS7_20_Default_ranged_hashENS7_20_Prime_rehash_policyENS7_17_Hashtable_traitsILb0ELb0ELb1EEEE15_M_bucket_indexEm, symObjAddr: 0x20B4, symBinAddr: 0x100002E14, symSize: 0x30 }
  - { offsetInCU: 0x13E7F, offset: 0x13E7F, size: 0x8, addend: 0x0, symName: __ZNKSt8__detail15_Hash_code_baseIcSt4pairIKcSt6vectorIcSaIcEEENS_10_Select1stESt4hashIcENS_18_Mod_range_hashingENS_20_Default_ranged_hashELb0EE12_M_hash_codeERS2_, symObjAddr: 0x207C, symBinAddr: 0x100002DDC, symSize: 0x38 }
  - { offsetInCU: 0x13EB9, offset: 0x13EB9, size: 0x8, addend: 0x0, symName: __ZNSt10_HashtableIcSt4pairIKcSt6vectorIcSaIcEEESaIS5_ENSt8__detail10_Select1stESt8equal_toIcESt4hashIcENS7_18_Mod_range_hashingENS7_20_Default_ranged_hashENS7_20_Prime_rehash_policyENS7_17_Hashtable_traitsILb0ELb0ELb1EEEE21_M_deallocate_bucketsEPPNS7_15_Hash_node_baseEm, symObjAddr: 0x2030, symBinAddr: 0x100002D90, symSize: 0x4C }
  - { offsetInCU: 0x13F03, offset: 0x13F03, size: 0x8, addend: 0x0, symName: __ZNSt8__detail16_Hashtable_allocISaINS_10_Hash_nodeISt4pairIKcSt6vectorIcSaIcEEELb0EEEEE19_M_deallocate_nodesEPS8_, symObjAddr: 0x1FE0, symBinAddr: 0x100002D40, symSize: 0x50 }
  - { offsetInCU: 0x13F60, offset: 0x13F60, size: 0x8, addend: 0x0, symName: __ZNKSt10_HashtableIcSt4pairIKcSt6vectorIcSaIcEEESaIS5_ENSt8__detail10_Select1stESt8equal_toIcESt4hashIcENS7_18_Mod_range_hashingENS7_20_Default_ranged_hashENS7_20_Prime_rehash_policyENS7_17_Hashtable_traitsILb0ELb0ELb1EEEE8_M_beginEv, symObjAddr: 0x1FC8, symBinAddr: 0x100002D28, symSize: 0x18 }
  - { offsetInCU: 0x13FBF, offset: 0x13FBF, size: 0x8, addend: 0x0, symName: __ZNK9__gnu_cxx17__normal_iteratorIPNSt7__cxx1112basic_stringIcSt11char_traitsIcESaIcEEESt6vectorIS6_SaIS6_EEE4baseEv, symObjAddr: 0x1FB4, symBinAddr: 0x100002D14, symSize: 0x14 }
  - { offsetInCU: 0x14080, offset: 0x14080, size: 0x8, addend: 0x0, symName: __ZN9__gnu_cxx17__normal_iteratorIPNSt7__cxx1112basic_stringIcSt11char_traitsIcESaIcEEESt6vectorIS6_SaIS6_EEEC1ERKS7_, symObjAddr: 0x1F8C, symBinAddr: 0x100002CEC, symSize: 0x28 }
  - { offsetInCU: 0x1403E, offset: 0x1403E, size: 0x8, addend: 0x0, symName: __ZNSt6vectorINSt7__cxx1112basic_stringIcSt11char_traitsIcESaIcEEESaIS5_EE17_M_realloc_appendIJRKS5_EEEvDpOT_, symObjAddr: 0x1D90, symBinAddr: 0x100002AF0, symSize: 0x1FC }
  - { offsetInCU: 0x14238, offset: 0x14238, size: 0x8, addend: 0x0, symName: __ZZNSt6vectorINSt7__cxx1112basic_stringIcSt11char_traitsIcESaIcEEESaIS5_EE17_M_realloc_appendIJRKS5_EEEvDpOT_EN6_GuardC1EPS5_mRS6_, symObjAddr: 0x1CEC, symBinAddr: 0x100002A4C, symSize: 0x44 }
  - { offsetInCU: 0x14276, offset: 0x14276, size: 0x8, addend: 0x0, symName: __ZZNSt6vectorINSt7__cxx1112basic_stringIcSt11char_traitsIcESaIcEEESaIS5_EE17_M_realloc_appendIJRKS5_EEEvDpOT_EN6_GuardD1Ev, symObjAddr: 0x1D30, symBinAddr: 0x100002A90, symSize: 0x60 }
  - { offsetInCU: 0x14330, offset: 0x14330, size: 0x8, addend: 0x0, symName: __ZNKSt5dequeINSt7__cxx1112basic_stringIcSt11char_traitsIcESaIcEEESaIS5_EE5emptyEv, symObjAddr: 0x1CBC, symBinAddr: 0x100002A1C, symSize: 0x30 }
  - { offsetInCU: 0x14395, offset: 0x14395, size: 0x8, addend: 0x0, symName: __ZNSt12_Vector_baseINSt7__cxx1112basic_stringIcSt11char_traitsIcESaIcEEESaIS5_EE19_M_get_Tp_allocatorEv, symObjAddr: 0x1CA8, symBinAddr: 0x100002A08, symSize: 0x14 }
  - { offsetInCU: 0x143BF, offset: 0x143BF, size: 0x8, addend: 0x0, symName: __ZNSt12_Vector_baseINSt7__cxx1112basic_stringIcSt11char_traitsIcESaIcEEESaIS5_EE13_M_deallocateEPS5_m, symObjAddr: 0x1C50, symBinAddr: 0x1000029B0, symSize: 0x58 }
  - { offsetInCU: 0x144AD, offset: 0x144AD, size: 0x8, addend: 0x0, symName: __ZNSt15__new_allocatorINSt7__cxx1112basic_stringIcSt11char_traitsIcESaIcEEEED2Ev, symObjAddr: 0x1C3C, symBinAddr: 0x10000299C, symSize: 0x14 }
  - { offsetInCU: 0x14502, offset: 0x14502, size: 0x8, addend: 0x0, symName: __ZNSt12_Vector_baseINSt7__cxx1112basic_stringIcSt11char_traitsIcESaIcEEESaIS5_EE17_Vector_impl_dataC2Ev, symObjAddr: 0x1C10, symBinAddr: 0x100002970, symSize: 0x2C }
  - { offsetInCU: 0x144D8, offset: 0x144D8, size: 0x8, addend: 0x0, symName: __ZNSt5dequeINSt7__cxx1112basic_stringIcSt11char_traitsIcESaIcEEESaIS5_EE9pop_frontEv, symObjAddr: 0x1B80, symBinAddr: 0x1000028E0, symSize: 0x90 }
  - { offsetInCU: 0x1455C, offset: 0x1455C, size: 0x8, addend: 0x0, symName: __ZNSt5dequeINSt7__cxx1112basic_stringIcSt11char_traitsIcESaIcEEESaIS5_EE9push_backEOS5_, symObjAddr: 0x1B50, symBinAddr: 0x1000028B0, symSize: 0x30 }
  - { offsetInCU: 0x14598, offset: 0x14598, size: 0x8, addend: 0x0, symName: __ZSt12__str_concatINSt7__cxx1112basic_stringIcSt11char_traitsIcESaIcEEEET_PKNS6_10value_typeENS6_9size_typeES9_SA_RKNS6_14allocator_typeE, symObjAddr: 0x1A70, symBinAddr: 0x1000027D0, symSize: 0xE0 }
  - { offsetInCU: 0x146E3, offset: 0x146E3, size: 0x8, addend: 0x0, symName: __ZNK9__gnu_cxx17__normal_iteratorIPcSt6vectorIcSaIcEEE4baseEv, symObjAddr: 0x1A5C, symBinAddr: 0x1000027BC, symSize: 0x14 }
  - { offsetInCU: 0x1476D, offset: 0x1476D, size: 0x8, addend: 0x0, symName: __ZN9__gnu_cxx17__normal_iteratorIPcSt6vectorIcSaIcEEEC1ERKS1_, symObjAddr: 0x1A34, symBinAddr: 0x100002794, symSize: 0x28 }
  - { offsetInCU: 0x14762, offset: 0x14762, size: 0x8, addend: 0x0, symName: __ZNSt8__detail9_Map_baseIcSt4pairIKcSt6vectorIcSaIcEEESaIS6_ENS_10_Select1stESt8equal_toIcESt4hashIcENS_18_Mod_range_hashingENS_20_Default_ranged_hashENS_20_Prime_rehash_policyENS_17_Hashtable_traitsILb0ELb0ELb1EEELb1EEixERS2_, symObjAddr: 0x1914, symBinAddr: 0x100002674, symSize: 0x120 }
  - { offsetInCU: 0x14876, offset: 0x14876, size: 0x8, addend: 0x0, symName: __ZNSt5dequeINSt7__cxx1112basic_stringIcSt11char_traitsIcESaIcEEESaIS5_EE5frontEv, symObjAddr: 0x18E8, symBinAddr: 0x100002648, symSize: 0x2C }
  - { offsetInCU: 0x148A0, offset: 0x148A0, size: 0x8, addend: 0x0, symName: __ZNSt5dequeINSt7__cxx1112basic_stringIcSt11char_traitsIcESaIcEEESaIS5_EE15_M_destroy_dataESt15_Deque_iteratorIS5_RS5_PS5_ESB_RKS6_, symObjAddr: 0x1894, symBinAddr: 0x1000025F4, symSize: 0x54 }
  - { offsetInCU: 0x148F9, offset: 0x148F9, size: 0x8, addend: 0x0, symName: __ZNSt11_Deque_baseINSt7__cxx1112basic_stringIcSt11char_traitsIcESaIcEEESaIS5_EE19_M_get_Tp_allocatorEv, symObjAddr: 0x1880, symBinAddr: 0x1000025E0, symSize: 0x14 }
  - { offsetInCU: 0x14923, offset: 0x14923, size: 0x8, addend: 0x0, symName: __ZNSt5dequeINSt7__cxx1112basic_stringIcSt11char_traitsIcESaIcEEESaIS5_EE3endEv, symObjAddr: 0x1848, symBinAddr: 0x1000025A8, symSize: 0x38 }
  - { offsetInCU: 0x1494D, offset: 0x1494D, size: 0x8, addend: 0x0, symName: __ZNSt5dequeINSt7__cxx1112basic_stringIcSt11char_traitsIcESaIcEEESaIS5_EE5beginEv, symObjAddr: 0x1810, symBinAddr: 0x100002570, symSize: 0x38 }
  - { offsetInCU: 0x149E8, offset: 0x149E8, size: 0x8, addend: 0x0, symName: __ZNSt11_Deque_baseINSt7__cxx1112basic_stringIcSt11char_traitsIcESaIcEEESaIS5_EED2Ev, symObjAddr: 0x17A4, symBinAddr: 0x100002504, symSize: 0x6C }
  - { offsetInCU: 0x14A26, offset: 0x14A26, size: 0x8, addend: 0x0, symName: __ZNSt11_Deque_baseINSt7__cxx1112basic_stringIcSt11char_traitsIcESaIcEEESaIS5_EEC2Ev, symObjAddr: 0x175C, symBinAddr: 0x1000024BC, symSize: 0x48 }
  - { offsetInCU: 0x14A7F, offset: 0x14A7F, size: 0x8, addend: 0x0, symName: __ZNSt11_Deque_baseINSt7__cxx1112basic_stringIcSt11char_traitsIcESaIcEEESaIS5_EE11_Deque_implD1Ev, symObjAddr: 0x1730, symBinAddr: 0x100002490, symSize: 0x2C }
  - { offsetInCU: 0x14A6C, offset: 0x14A6C, size: 0x8, addend: 0x0, symName: __ZNSt6vectorIcSaIcEE13_M_assign_auxIPKcEEvT_S5_St20forward_iterator_tag, symObjAddr: 0x14F0, symBinAddr: 0x100002250, symSize: 0x240 }
  - { offsetInCU: 0x14C83, offset: 0x14C83, size: 0x8, addend: 0x0, symName: __ZNKSt16initializer_listIcE3endEv, symObjAddr: 0x14BC, symBinAddr: 0x10000221C, symSize: 0x34 }
  - { offsetInCU: 0x14CAD, offset: 0x14CAD, size: 0x8, addend: 0x0, symName: __ZNKSt16initializer_listIcE5beginEv, symObjAddr: 0x14A4, symBinAddr: 0x100002204, symSize: 0x18 }
  - { offsetInCU: 0x14CD7, offset: 0x14CD7, size: 0x8, addend: 0x0, symName: __ZNSt8__detail9_Map_baseIcSt4pairIKcSt6vectorIcSaIcEEESaIS6_ENS_10_Select1stESt8equal_toIcESt4hashIcENS_18_Mod_range_hashingENS_20_Default_ranged_hashENS_20_Prime_rehash_policyENS_17_Hashtable_traitsILb0ELb0ELb1EEELb1EEixEOc, symObjAddr: 0x1374, symBinAddr: 0x1000020D4, symSize: 0x130 }
  - { offsetInCU: 0x14DD2, offset: 0x14DD2, size: 0x8, addend: 0x0, symName: __ZSt4moveIRcEONSt16remove_referenceIT_E4typeEOS2_, symObjAddr: 0x1360, symBinAddr: 0x1000020C0, symSize: 0x14 }
  - { offsetInCU: 0x14E06, offset: 0x14E06, size: 0x8, addend: 0x0, symName: __ZNSt10_HashtableIcSt4pairIKcSt6vectorIcSaIcEEESaIS5_ENSt8__detail10_Select1stESt8equal_toIcESt4hashIcENS7_18_Mod_range_hashingENS7_20_Default_ranged_hashENS7_20_Prime_rehash_policyENS7_17_Hashtable_traitsILb0ELb0ELb1EEEE21_M_deallocate_bucketsEv, symObjAddr: 0x132C, symBinAddr: 0x10000208C, symSize: 0x34 }
  - { offsetInCU: 0x14E30, offset: 0x14E30, size: 0x8, addend: 0x0, symName: __ZNSt10_HashtableIcSt4pairIKcSt6vectorIcSaIcEEESaIS5_ENSt8__detail10_Select1stESt8equal_toIcESt4hashIcENS7_18_Mod_range_hashingENS7_20_Default_ranged_hashENS7_20_Prime_rehash_policyENS7_17_Hashtable_traitsILb0ELb0ELb1EEEE5clearEv, symObjAddr: 0x12CC, symBinAddr: 0x10000202C, symSize: 0x60 }
  - { offsetInCU: 0x14ECF, offset: 0x14ECF, size: 0x8, addend: 0x0, symName: __ZNSt15__new_allocatorINSt8__detail10_Hash_nodeISt4pairIKcSt6vectorIcSaIcEEELb0EEEED2Ev, symObjAddr: 0x12B8, symBinAddr: 0x100002018, symSize: 0x14 }
  - { offsetInCU: 0x14EB7, offset: 0x14EB7, size: 0x8, addend: 0x0, symName: __ZSt4moveIRNSt7__cxx1112basic_stringIcSt11char_traitsIcESaIcEEEEONSt16remove_referenceIT_E4typeEOS8_, symObjAddr: 0x12A4, symBinAddr: 0x100002004, symSize: 0x14 }
  - { offsetInCU: 0x14EEB, offset: 0x14EEB, size: 0x8, addend: 0x0, symName: __ZNSt7__cxx1112basic_stringIcSt11char_traitsIcESaIcEE12_M_constructIPKcEEvT_S8_St20forward_iterator_tag, symObjAddr: 0x11A4, symBinAddr: 0x100001F04, symSize: 0x100 }
  - { offsetInCU: 0x15063, offset: 0x15063, size: 0x8, addend: 0x0, symName: __ZZNSt7__cxx1112basic_stringIcSt11char_traitsIcESaIcEE12_M_constructIPKcEEvT_S8_St20forward_iterator_tagEN6_GuardC1EPS4_, symObjAddr: 0x114C, symBinAddr: 0x100001EAC, symSize: 0x24 }
  - { offsetInCU: 0x15094, offset: 0x15094, size: 0x8, addend: 0x0, symName: __ZZNSt7__cxx1112basic_stringIcSt11char_traitsIcESaIcEE12_M_constructIPKcEEvT_S8_St20forward_iterator_tagEN6_GuardD1Ev, symObjAddr: 0x1170, symBinAddr: 0x100001ED0, symSize: 0x34 }
  - { offsetInCU: 0x15138, offset: 0x15138, size: 0x8, addend: 0x0, symName: __ZNSt15__new_allocatorIcED2Ev, symObjAddr: 0x1138, symBinAddr: 0x100001E98, symSize: 0x14 }
  - { offsetInCU: 0x1517E, offset: 0x1517E, size: 0x8, addend: 0x0, symName: __ZN9__gnu_cxx11char_traitsIcE2eqERKcS3_, symObjAddr: 0x1108, symBinAddr: 0x100001E68, symSize: 0x30 }
  - { offsetInCU: 0x151B8, offset: 0x151B8, size: 0x8, addend: 0x0, symName: __ZNK9__gnu_cxx17__normal_iteratorIPNSt7__cxx1112basic_stringIcSt11char_traitsIcESaIcEEESt6vectorIS6_SaIS6_EEEdeEv, symObjAddr: 0x10F0, symBinAddr: 0x100001E50, symSize: 0x18 }
  - { offsetInCU: 0x151E2, offset: 0x151E2, size: 0x8, addend: 0x0, symName: __ZN9__gnu_cxx17__normal_iteratorIPNSt7__cxx1112basic_stringIcSt11char_traitsIcESaIcEEESt6vectorIS6_SaIS6_EEEppEv, symObjAddr: 0x10C8, symBinAddr: 0x100001E28, symSize: 0x28 }
  - { offsetInCU: 0x15208, offset: 0x15208, size: 0x8, addend: 0x0, symName: __ZN9__gnu_cxxneIPNSt7__cxx1112basic_stringIcSt11char_traitsIcESaIcEEESt6vectorIS6_SaIS6_EEEEbRKNS_17__normal_iteratorIT_T0_EESG_, symObjAddr: 0x1084, symBinAddr: 0x100001DE4, symSize: 0x44 }
  - { offsetInCU: 0x15256, offset: 0x15256, size: 0x8, addend: 0x0, symName: __ZNSt6vectorINSt7__cxx1112basic_stringIcSt11char_traitsIcESaIcEEESaIS5_EE3endEv, symObjAddr: 0x105C, symBinAddr: 0x100001DBC, symSize: 0x28 }
  - { offsetInCU: 0x15280, offset: 0x15280, size: 0x8, addend: 0x0, symName: __ZNSt6vectorINSt7__cxx1112basic_stringIcSt11char_traitsIcESaIcEEESaIS5_EE5beginEv, symObjAddr: 0x1038, symBinAddr: 0x100001D98, symSize: 0x24 }
  - { offsetInCU: 0x15331, offset: 0x15331, size: 0x8, addend: 0x0, symName: __ZNSt7__cxx1112basic_stringIcSt11char_traitsIcESaIcEEC1IS3_EEPKcRKS3_, symObjAddr: 0xF9C, symBinAddr: 0x100001CFC, symSize: 0x9C }
  - { offsetInCU: 0x15354, offset: 0x15354, size: 0x8, addend: 0x0, symName: __ZNSt6vectorINSt7__cxx1112basic_stringIcSt11char_traitsIcESaIcEEESaIS5_EE9push_backERKS5_, symObjAddr: 0xEA0, symBinAddr: 0x100001C00, symSize: 0xFC }
  - { offsetInCU: 0x153F2, offset: 0x153F2, size: 0x8, addend: 0x0, symName: __ZNKSt5queueINSt7__cxx1112basic_stringIcSt11char_traitsIcESaIcEEESt5dequeIS5_SaIS5_EEE5emptyEv, symObjAddr: 0xE84, symBinAddr: 0x100001BE4, symSize: 0x1C }
  - { offsetInCU: 0x15487, offset: 0x15487, size: 0x8, addend: 0x0, symName: __ZNSt6vectorINSt7__cxx1112basic_stringIcSt11char_traitsIcESaIcEEESaIS5_EED1Ev, symObjAddr: 0xE28, symBinAddr: 0x100001B88, symSize: 0x5C }
  - { offsetInCU: 0x1550B, offset: 0x1550B, size: 0x8, addend: 0x0, symName: __ZNSt12_Vector_baseINSt7__cxx1112basic_stringIcSt11char_traitsIcESaIcEEESaIS5_EED2Ev, symObjAddr: 0xDD8, symBinAddr: 0x100001B38, symSize: 0x50 }
  - { offsetInCU: 0x15574, offset: 0x15574, size: 0x8, addend: 0x0, symName: __ZNSt12_Vector_baseINSt7__cxx1112basic_stringIcSt11char_traitsIcESaIcEEESaIS5_EE12_Vector_implC1Ev, symObjAddr: 0xDA0, symBinAddr: 0x100001B00, symSize: 0x38 }
  - { offsetInCU: 0x15581, offset: 0x15581, size: 0x8, addend: 0x0, symName: __ZNSt5queueINSt7__cxx1112basic_stringIcSt11char_traitsIcESaIcEEESt5dequeIS5_SaIS5_EEE3popEv, symObjAddr: 0xD80, symBinAddr: 0x100001AE0, symSize: 0x20 }
  - { offsetInCU: 0x155AB, offset: 0x155AB, size: 0x8, addend: 0x0, symName: __ZNSt5queueINSt7__cxx1112basic_stringIcSt11char_traitsIcESaIcEEESt5dequeIS5_SaIS5_EEE4pushEOS5_, symObjAddr: 0xD44, symBinAddr: 0x100001AA4, symSize: 0x3C }
  - { offsetInCU: 0x155E1, offset: 0x155E1, size: 0x8, addend: 0x0, symName: __ZStplIcSt11char_traitsIcESaIcEENSt7__cxx1112basic_stringIT_T0_T1_EERKS8_S5_, symObjAddr: 0xC98, symBinAddr: 0x1000019F8, symSize: 0xAC }
  - { offsetInCU: 0x1567A, offset: 0x1567A, size: 0x8, addend: 0x0, symName: __ZNK9__gnu_cxx17__normal_iteratorIPcSt6vectorIcSaIcEEEdeEv, symObjAddr: 0xC80, symBinAddr: 0x1000019E0, symSize: 0x18 }
  - { offsetInCU: 0x156A4, offset: 0x156A4, size: 0x8, addend: 0x0, symName: __ZN9__gnu_cxx17__normal_iteratorIPcSt6vectorIcSaIcEEEppEv, symObjAddr: 0xC58, symBinAddr: 0x1000019B8, symSize: 0x28 }
  - { offsetInCU: 0x156D0, offset: 0x156D0, size: 0x8, addend: 0x0, symName: __ZN9__gnu_cxxneIPcSt6vectorIcSaIcEEEEbRKNS_17__normal_iteratorIT_T0_EESA_, symObjAddr: 0xC14, symBinAddr: 0x100001974, symSize: 0x44 }
  - { offsetInCU: 0x1571E, offset: 0x1571E, size: 0x8, addend: 0x0, symName: __ZNSt6vectorIcSaIcEE3endEv, symObjAddr: 0xBEC, symBinAddr: 0x10000194C, symSize: 0x28 }
  - { offsetInCU: 0x15748, offset: 0x15748, size: 0x8, addend: 0x0, symName: __ZNSt6vectorIcSaIcEE5beginEv, symObjAddr: 0xBC8, symBinAddr: 0x100001928, symSize: 0x24 }
  - { offsetInCU: 0x15772, offset: 0x15772, size: 0x8, addend: 0x0, symName: __ZNSt13unordered_mapIcSt6vectorIcSaIcEESt4hashIcESt8equal_toIcESaISt4pairIKcS2_EEEixERS8_, symObjAddr: 0xBA4, symBinAddr: 0x100001904, symSize: 0x24 }
  - { offsetInCU: 0x157AC, offset: 0x157AC, size: 0x8, addend: 0x0, symName: __ZNSt5queueINSt7__cxx1112basic_stringIcSt11char_traitsIcESaIcEEESt5dequeIS5_SaIS5_EEE5frontEv, symObjAddr: 0xB88, symBinAddr: 0x1000018E8, symSize: 0x1C }
  - { offsetInCU: 0x15840, offset: 0x15840, size: 0x8, addend: 0x0, symName: __ZNSt5dequeINSt7__cxx1112basic_stringIcSt11char_traitsIcESaIcEEESaIS5_EED1Ev, symObjAddr: 0xB20, symBinAddr: 0x100001880, symSize: 0x68 }
  - { offsetInCU: 0x158A0, offset: 0x158A0, size: 0x8, addend: 0x0, symName: __ZNSt5queueINSt7__cxx1112basic_stringIcSt11char_traitsIcESaIcEEESt5dequeIS5_SaIS5_EEEC1IS8_vEEv, symObjAddr: 0xAE4, symBinAddr: 0x100001844, symSize: 0x3C }
  - { offsetInCU: 0x158D9, offset: 0x158D9, size: 0x8, addend: 0x0, symName: __ZNSt5dequeINSt7__cxx1112basic_stringIcSt11char_traitsIcESaIcEEESaIS5_EEC1Ev, symObjAddr: 0xAC4, symBinAddr: 0x100001824, symSize: 0x20 }
  - { offsetInCU: 0x158B6, offset: 0x158B6, size: 0x8, addend: 0x0, symName: __ZNSt6vectorIcSaIcEEaSESt16initializer_listIcE, symObjAddr: 0xA78, symBinAddr: 0x1000017D8, symSize: 0x4C }
  - { offsetInCU: 0x158F0, offset: 0x158F0, size: 0x8, addend: 0x0, symName: __ZNSt13unordered_mapIcSt6vectorIcSaIcEESt4hashIcESt8equal_toIcESaISt4pairIKcS2_EEEixEOc, symObjAddr: 0xA40, symBinAddr: 0x1000017A0, symSize: 0x38 }
  - { offsetInCU: 0x15A29, offset: 0x15A29, size: 0x8, addend: 0x0, symName: __ZNSt10_HashtableIcSt4pairIKcSt6vectorIcSaIcEEESaIS5_ENSt8__detail10_Select1stESt8equal_toIcESt4hashIcENS7_18_Mod_range_hashingENS7_20_Default_ranged_hashENS7_20_Prime_rehash_policyENS7_17_Hashtable_traitsILb0ELb0ELb1EEEED1Ev, symObjAddr: 0xA10, symBinAddr: 0x100001770, symSize: 0x30 }
  - { offsetInCU: 0x15A0C, offset: 0x15A0C, size: 0x8, addend: 0x0, symName: __ZNSt8__detail21_Hashtable_ebo_helperILi0ESaINS_10_Hash_nodeISt4pairIKcSt6vectorIcSaIcEEELb0EEEELb1EEC2Ev, symObjAddr: 0x9E4, symBinAddr: 0x100001744, symSize: 0x2C }
  - { offsetInCU: 0x15A69, offset: 0x15A69, size: 0x8, addend: 0x0, symName: __ZNSt8__detail21_Hashtable_ebo_helperILi0ESt8equal_toIcELb1EEC2Ev, symObjAddr: 0x9D0, symBinAddr: 0x100001730, symSize: 0x14 }
  - { offsetInCU: 0x15AA3, offset: 0x15AA3, size: 0x8, addend: 0x0, symName: __ZNSt8__detail21_Hashtable_ebo_helperILi1ESt4hashIcELb1EEC2Ev, symObjAddr: 0x9BC, symBinAddr: 0x10000171C, symSize: 0x14 }
  - { offsetInCU: 0x15A8B, offset: 0x15A8B, size: 0x8, addend: 0x0, symName: __ZSt3maxImERKT_S2_S2_, symObjAddr: 0x984, symBinAddr: 0x1000016E4, symSize: 0x38 }
  - { offsetInCU: 0x15B6A, offset: 0x15B6A, size: 0x8, addend: 0x0, symName: __ZNSt7__cxx1112basic_stringIcSt11char_traitsIcESaIcEE12_Alloc_hiderD1Ev, symObjAddr: 0x958, symBinAddr: 0x1000016B8, symSize: 0x2C }
  - { offsetInCU: 0x15B6B, offset: 0x15B6B, size: 0x8, addend: 0x0, symName: __ZN9__gnu_cxx11char_traitsIcE6lengthEPKc, symObjAddr: 0x900, symBinAddr: 0x100001660, symSize: 0x58 }
  - { offsetInCU: 0x15BAB, offset: 0x15BAB, size: 0x8, addend: 0x0, symName: _main, symObjAddr: 0x794, symBinAddr: 0x1000014F4, symSize: 0x16C }
  - { offsetInCU: 0x15CC8, offset: 0x15CC8, size: 0x8, addend: 0x0, symName: __ZN8Solution18letterCombinationsENSt7__cxx1112basic_stringIcSt11char_traitsIcESaIcEEE, symObjAddr: 0x3F4, symBinAddr: 0x100001154, symSize: 0x3A0 }
  - { offsetInCU: 0x15E1F, offset: 0x15E1F, size: 0x8, addend: 0x0, symName: __ZNSt6vectorINSt7__cxx1112basic_stringIcSt11char_traitsIcESaIcEEESaIS5_EEC1Ev, symObjAddr: 0x3D4, symBinAddr: 0x100001134, symSize: 0x20 }
  - { offsetInCU: 0x15E64, offset: 0x15E64, size: 0x8, addend: 0x0, symName: __ZNSt12_Vector_baseINSt7__cxx1112basic_stringIcSt11char_traitsIcESaIcEEESaIS5_EEC2Ev, symObjAddr: 0x3B4, symBinAddr: 0x100001114, symSize: 0x20 }
  - { offsetInCU: 0x15EBD, offset: 0x15EBD, size: 0x8, addend: 0x0, symName: __ZNSt12_Vector_baseINSt7__cxx1112basic_stringIcSt11char_traitsIcESaIcEEESaIS5_EE12_Vector_implD1Ev, symObjAddr: 0x388, symBinAddr: 0x1000010E8, symSize: 0x2C }
  - { offsetInCU: 0x15F22, offset: 0x15F22, size: 0x8, addend: 0x0, symName: __ZNSt5queueINSt7__cxx1112basic_stringIcSt11char_traitsIcESaIcEEESt5dequeIS5_SaIS5_EEED1Ev, symObjAddr: 0x368, symBinAddr: 0x1000010C8, symSize: 0x20 }
  - { offsetInCU: 0x15F6A, offset: 0x15F6A, size: 0x8, addend: 0x0, symName: __ZNSt13unordered_mapIcSt6vectorIcSaIcEESt4hashIcESt8equal_toIcESaISt4pairIKcS2_EEED1Ev, symObjAddr: 0x348, symBinAddr: 0x1000010A8, symSize: 0x20 }
  - { offsetInCU: 0x15FA8, offset: 0x15FA8, size: 0x8, addend: 0x0, symName: __ZNSt13unordered_mapIcSt6vectorIcSaIcEESt4hashIcESt8equal_toIcESaISt4pairIKcS2_EEEC1Ev, symObjAddr: 0x328, symBinAddr: 0x100001088, symSize: 0x20 }
  - { offsetInCU: 0x16071, offset: 0x16071, size: 0x8, addend: 0x0, symName: __ZNSt10_HashtableIcSt4pairIKcSt6vectorIcSaIcEEESaIS5_ENSt8__detail10_Select1stESt8equal_toIcESt4hashIcENS7_18_Mod_range_hashingENS7_20_Default_ranged_hashENS7_20_Prime_rehash_policyENS7_17_Hashtable_traitsILb0ELb0ELb1EEEEC1Ev, symObjAddr: 0x2B8, symBinAddr: 0x100001018, symSize: 0x70 }
  - { offsetInCU: 0x16038, offset: 0x16038, size: 0x8, addend: 0x0, symName: __ZNSt8__detail16_Hashtable_allocISaINS_10_Hash_nodeISt4pairIKcSt6vectorIcSaIcEEELb0EEEEED2Ev, symObjAddr: 0x298, symBinAddr: 0x100000FF8, symSize: 0x20 }
  - { offsetInCU: 0x16076, offset: 0x16076, size: 0x8, addend: 0x0, symName: __ZNSt8__detail16_Hashtable_allocISaINS_10_Hash_nodeISt4pairIKcSt6vectorIcSaIcEEELb0EEEEEC2Ev, symObjAddr: 0x278, symBinAddr: 0x100000FD8, symSize: 0x20 }
  - { offsetInCU: 0x160CF, offset: 0x160CF, size: 0x8, addend: 0x0, symName: __ZNSt8__detail21_Hashtable_ebo_helperILi0ESaINS_10_Hash_nodeISt4pairIKcSt6vectorIcSaIcEEELb0EEEELb1EED2Ev, symObjAddr: 0x24C, symBinAddr: 0x100000FAC, symSize: 0x2C }
  - { offsetInCU: 0x16189, offset: 0x16189, size: 0x8, addend: 0x0, symName: __ZNSt8__detail15_Hashtable_baseIcSt4pairIKcSt6vectorIcSaIcEEENS_10_Select1stESt8equal_toIcESt4hashIcENS_18_Mod_range_hashingENS_20_Default_ranged_hashENS_17_Hashtable_traitsILb0ELb0ELb1EEEEC2Ev, symObjAddr: 0x224, symBinAddr: 0x100000F84, symSize: 0x28 }
  - { offsetInCU: 0x16198, offset: 0x16198, size: 0x8, addend: 0x0, symName: __ZNSt8__detail15_Hash_code_baseIcSt4pairIKcSt6vectorIcSaIcEEENS_10_Select1stESt4hashIcENS_18_Mod_range_hashingENS_20_Default_ranged_hashELb0EEC2Ev, symObjAddr: 0x204, symBinAddr: 0x100000F64, symSize: 0x20 }
  - { offsetInCU: 0x16139, offset: 0x16139, size: 0x8, addend: 0x0, symName: __Z4fastv, symObjAddr: 0x1C0, symBinAddr: 0x100000F20, symSize: 0x44 }
  - { offsetInCU: 0x1614A, offset: 0x1614A, size: 0x8, addend: 0x0, symName: __ZSt3minImERKT_S2_S2_, symObjAddr: 0x188, symBinAddr: 0x100000EE8, symSize: 0x38 }
  - { offsetInCU: 0x1618D, offset: 0x1618D, size: 0x8, addend: 0x0, symName: __ZNSt8__detail20_Prime_rehash_policy8_M_resetEm, symObjAddr: 0x164, symBinAddr: 0x100000EC4, symSize: 0x24 }
  - { offsetInCU: 0x161C7, offset: 0x161C7, size: 0x8, addend: 0x0, symName: __ZNKSt8__detail20_Prime_rehash_policy8_M_stateEv, symObjAddr: 0x14C, symBinAddr: 0x100000EAC, symSize: 0x18 }
  - { offsetInCU: 0x1623C, offset: 0x1623C, size: 0x8, addend: 0x0, symName: __ZNSt8__detail20_Prime_rehash_policyC1Ef, symObjAddr: 0x120, symBinAddr: 0x100000E80, symSize: 0x2C }
  - { offsetInCU: 0x16246, offset: 0x16246, size: 0x8, addend: 0x0, symName: __ZNKSt8__detail18_Mod_range_hashingclEmm, symObjAddr: 0xF0, symBinAddr: 0x100000E50, symSize: 0x30 }
  - { offsetInCU: 0x162C8, offset: 0x162C8, size: 0x8, addend: 0x0, symName: __ZNSt8__detail15_Hash_node_baseC1Ev, symObjAddr: 0xD4, symBinAddr: 0x100000E34, symSize: 0x1C }
  - { offsetInCU: 0x162F2, offset: 0x162F2, size: 0x8, addend: 0x0, symName: __ZNSt8__detail15_Hash_node_baseC2Ev, symObjAddr: 0xB8, symBinAddr: 0x100000E18, symSize: 0x1C }
  - { offsetInCU: 0x162F4, offset: 0x162F4, size: 0x8, addend: 0x0, symName: __ZSt16__deque_buf_sizem, symObjAddr: 0x88, symBinAddr: 0x100000DE8, symSize: 0x30 }
  - { offsetInCU: 0x1631F, offset: 0x1631F, size: 0x8, addend: 0x0, symName: __ZNKSt4hashIcEclEc, symObjAddr: 0x6C, symBinAddr: 0x100000DCC, symSize: 0x1C }
  - { offsetInCU: 0x16354, offset: 0x16354, size: 0x8, addend: 0x0, symName: __ZNSt11char_traitsIcE6lengthEPKc, symObjAddr: 0x30, symBinAddr: 0x100000D90, symSize: 0x3C }
  - { offsetInCU: 0x163A3, offset: 0x163A3, size: 0x8, addend: 0x0, symName: __ZdlPvS_, symObjAddr: 0x18, symBinAddr: 0x100000D78, symSize: 0x18 }
  - { offsetInCU: 0x163D8, offset: 0x163D8, size: 0x8, addend: 0x0, symName: __ZnwmPv, symObjAddr: 0x0, symBinAddr: 0x100000D60, symSize: 0x18 }
...
